Certificate:
    Data:
        Version: 1 (0x0)
        Serial Number: 0 (0x0)
    Signature Algorithm: sha256WithRSAEncryption
        Issuer: C=CT, ST=Barcelona, L=Bellaterra, O=PaySense, OU=ACA, CN=ACA/emailAddress=aca@deic.uab.cat
        Validity
            Not Before: Nov 17 12:10:08 2015 GMT
            Not After : Nov 16 12:10:08 2016 GMT
        Subject: C=CT, ST=Barcelona, L=Bellaterra, O=UAB, OU=DEIC, CN=mrwoEv3ecJ9pXCd3HiPuYGXexsVjG4KCmb
        Subject Public Key Info:
            Public Key Algorithm: id-ecPublicKey
                Public-Key: (256 bit)
                pub: 
                    04:6b:be:72:f3:ff:34:ac:e2:84:6e:f7:13:e6:86:
                    1f:ec:e5:90:0b:73:a4:d3:67:6c:99:3d:b0:82:92:
                    c8:a6:f1:6a:e3:a5:9e:80:36:a6:13:a2:4a:e4:5b:
                    57:0d:35:f4:c9:7e:6c:95:ca:39:12:0a:8c:20:9f:
                    43:bf:16:f1:4a
                ASN1 OID: secp256k1
    Signature Algorithm: sha256WithRSAEncryption
         8c:a5:3c:78:13:93:1b:48:b6:55:9d:81:37:44:cc:2e:0f:53:
         9c:31:d8:59:57:d0:67:f4:cf:75:08:b4:fa:d5:7d:58:95:25:
         ef:b9:4d:45:fe:35:64:71:b8:b6:2a:8d:61:9e:06:b6:74:be:
         d9:ab:42:82:52:67:70:c1:0f:4b:19:96:5e:4b:4b:95:9d:d0:
         ec:3c:6e:9d:30:c9:60:92:a0:e3:25:af:0b:07:77:46:c2:b6:
         6a:b4:05:71:17:ea:de:74:f3:50:7f:0a:a2:72:66:cf:e6:6f:
         f5:c0:49:f4:fc:fe:c4:d0:d2:47:a8:07:e9:67:e5:d3:46:22:
         6c:82:c9:15:d5:b4:dc:b3:7a:1e:9c:ef:9d:d6:64:aa:a2:b9:
         14:17:33:53:6c:69:a0:81:19:8f:f4:01:89:3e:e9:ce:8b:cc:
         42:0b:6f:6d:02:5e:53:c4:af:4f:8e:b5:be:a5:a9:c1:ec:e5:
         6b:06:14:8e:86:10:48:4d:6e:52:37:0e:bb:40:1c:61:61:ba:
         82:04:54:f5:71:80:dd:f0:63:e5:30:78:55:dc:21:bf:08:a0:
         10:90:bf:72:87:6e:b3:1c:0f:7e:28:06:52:80:1e:93:11:b0:
         37:e4:93:44:93:88:33:d3:8c:ff:9b:c8:8d:60:e5:01:71:a0:
         57:11:de:ea:c6:43:fd:67:8a:00:ff:13:5f:80:77:42:c8:ad:
         e4:f2:e1:01:11:d0:e2:27:bf:c9:08:f5:0b:01:e3:d1:95:a6:
         f9:c9:81:24:aa:9c:fa:27:e2:07:b9:b2:2b:8b:32:b6:17:67:
         4f:58:ee:07:59:8d:74:dd:3b:8a:0a:04:f0:f4:c3:29:36:5e:
         83:5c:b3:98:85:12:c4:56:49:f8:10:2a:79:cc:c0:a2:11:46:
         43:a8:6f:93:48:fe:88:b7:fc:eb:64:09:64:ea:e4:a7:5d:48:
         42:bf:90:2b:48:fb:ab:a7:52:d2:ad:ff:13:82:fe:ac:79:d5:
         1b:55:6e:43:71:16:21:3a:f2:24:ba:d5:b9:b1:78:6d:b3:3d:
         92:19:04:90:84:35:90:81:49:60:b9:6b:43:c1:0a:f6:09:0f:
         f4:bf:28:4b:c9:30:ae:58:58:ea:26:3e:89:b0:12:98:b0:6b:
         12:22:fc:20:1d:2d:bd:54:ac:b2:78:af:46:ea:f1:a7:52:5f:
         f8:a8:c0:0d:0b:ad:31:46:a4:90:4c:4a:cd:a5:79:13:20:5f:
         32:62:ae:e9:53:79:f9:3b:7b:17:db:8f:96:f8:47:e8:d0:c1:
         91:92:8c:90:4a:92:b2:61:10:f8:c2:ec:8b:56:5d:80:e2:25:
         05:9d:40:c4:25:e7:65:af
-----BEGIN CERTIFICATE-----
MIIDrjCCAZYCAQAwDQYJKoZIhvcNAQELBQAwgYYxCzAJBgNVBAYTAkNUMRIwEAYD
VQQIDAlCYXJjZWxvbmExEzARBgNVBAcMCkJlbGxhdGVycmExETAPBgNVBAoMCFBh
eVNlbnNlMQwwCgYDVQQLDANBQ0ExDDAKBgNVBAMMA0FDQTEfMB0GCSqGSIb3DQEJ
ARYQYWNhQGRlaWMudWFiLmNhdDAeFw0xNTExMTcxMjEwMDhaFw0xNjExMTYxMjEw
MDhaMIGAMQswCQYDVQQGEwJDVDESMBAGA1UECAwJQmFyY2Vsb25hMRMwEQYDVQQH
DApCZWxsYXRlcnJhMQwwCgYDVQQKDANVQUIxDTALBgNVBAsMBERFSUMxKzApBgNV
BAMMIm1yd29FdjNlY0o5cFhDZDNIaVB1WUdYZXhzVmpHNEtDbWIwVjAQBgcqhkjO
PQIBBgUrgQQACgNCAARrvnLz/zSs4oRu9xPmhh/s5ZALc6TTZ2yZPbCCksim8Wrj
pZ6ANqYTokrkW1cNNfTJfmyVyjkSCowgn0O/FvFKMA0GCSqGSIb3DQEBCwUAA4IC
AQCMpTx4E5MbSLZVnYE3RMwuD1OcMdhZV9Bn9M91CLT61X1YlSXvuU1F/jVkcbi2
Ko1hnga2dL7Zq0KCUmdwwQ9LGZZeS0uVndDsPG6dMMlgkqDjJa8LB3dGwrZqtAVx
F+redPNQfwqicmbP5m/1wEn0/P7E0NJHqAfpZ+XTRiJsgskV1bTcs3oenO+d1mSq
orkUFzNTbGmggRmP9AGJPunOi8xCC29tAl5TxK9PjrW+panB7OVrBhSOhhBITW5S
Nw67QBxhYbqCBFT1cYDd8GPlMHhV3CG/CKAQkL9yh26zHA9+KAZSgB6TEbA35JNE
k4gz04z/m8iNYOUBcaBXEd7qxkP9Z4oA/xNfgHdCyK3k8uEBEdDiJ7/JCPULAePR
lab5yYEkqpz6J+IHubIrizK2F2dPWO4HWY103TuKCgTw9MMpNl6DXLOYhRLEVkn4
ECp5zMCiEUZDqG+TSP6It/zrZAlk6uSnXUhCv5ArSPurp1LSrf8Tgv6sedUbVW5D
cRYhOvIkutW5sXhtsz2SGQSQhDWQgUlguWtDwQr2CQ/0vyhLyTCuWFjqJj6JsBKY
sGsSIvwgHS29VKyyeK9G6vGnUl/4qMANC60xRqSQTErNpXkTIF8yYq7pU3n5O3sX
24+W+Efo0MGRkoyQSpKyYRD4wuyLVl2A4iUFnUDEJedlrw==
-----END CERTIFICATE-----
