Certificate:
    Data:
        Version: 1 (0x0)
        Serial Number: 0 (0x0)
    Signature Algorithm: sha256WithRSAEncryption
        Issuer: C=CT, ST=Barcelona, L=Bellaterra, O=PaySense, OU=ACA, CN=ACA/emailAddress=aca@deic.uab.cat
        Validity
            Not Before: Nov  5 09:28:02 2015 GMT
            Not After : Nov  4 09:28:02 2016 GMT
        Subject: C=CT, ST=Barcelona, L=Bellaterra, O=UAB, OU=DEIC, CN=mjVj8DTsi7nEMH2oarr63ZKdqhA8eZoQZe
        Subject Public Key Info:
            Public Key Algorithm: id-ecPublicKey
                Public-Key: (256 bit)
                pub: 
                    04:14:f5:3c:23:ad:23:9a:a6:51:40:c9:66:61:0b:
                    35:d1:87:dc:2d:60:7a:5e:26:45:05:80:e7:15:eb:
                    c8:35:12:3b:cf:ae:95:38:8b:dd:bb:03:b3:27:2b:
                    f4:21:1a:5f:6e:63:f8:eb:14:d3:cb:d0:92:0a:f1:
                    80:8b:59:e3:6a
                ASN1 OID: secp256k1
    Signature Algorithm: sha256WithRSAEncryption
         15:eb:83:48:14:a7:17:9a:a4:57:7c:d6:8b:a6:a2:1e:fa:91:
         79:91:b5:e1:5c:b9:e2:42:8b:b3:91:ce:c1:8a:75:04:30:f9:
         fd:11:00:75:5d:5a:3a:2f:a8:be:c9:34:3d:b5:91:23:bd:58:
         67:a8:9d:8e:85:ba:3a:77:34:e8:91:74:11:56:5f:6d:12:d6:
         ad:ae:af:27:d8:1d:49:4d:95:bb:8a:2c:d2:69:86:33:15:57:
         50:b8:0f:1e:03:bb:7d:68:66:0a:65:ce:1b:4a:04:d3:0d:1d:
         97:8b:8c:17:ef:c2:b8:58:07:b6:43:df:29:e1:e3:67:dc:36:
         da:a6:b4:9a:3a:5a:93:d7:a7:7c:5c:00:02:67:fe:54:c0:aa:
         56:f1:66:26:a9:f4:2b:5a:7c:52:06:a1:84:32:d0:01:a0:d8:
         22:72:93:60:af:66:f2:7e:cb:e8:37:cd:4b:80:c5:78:e8:e8:
         99:a6:4a:17:e2:1e:3b:39:62:40:49:d3:48:cc:2c:f5:80:f1:
         bc:e8:89:9f:48:fb:c9:d2:12:e0:5b:c0:57:7f:e7:87:d4:32:
         bd:5c:54:31:93:07:68:49:06:e7:53:72:bb:78:f7:f6:da:cf:
         84:96:c7:46:95:3c:73:dd:3f:7c:70:68:bc:0f:db:8d:0f:38:
         f6:f0:b7:38:e0:1d:79:f4:59:40:22:f1:d4:e2:b5:fd:aa:b4:
         5c:55:b0:ac:07:84:9e:89:40:46:ef:ab:15:0e:98:97:76:ba:
         02:b2:75:d7:ad:27:8d:75:5c:cf:e2:18:32:ab:93:02:f2:0e:
         b4:5f:48:08:82:ec:72:22:f1:3c:d9:d1:24:bd:4f:af:45:c6:
         e9:47:7b:ff:4c:48:50:a7:2d:28:2f:06:6a:44:8e:12:92:d9:
         0d:b0:a7:5a:9a:b8:93:f6:8f:03:4b:6f:eb:d4:e3:43:37:26:
         17:be:6e:7e:f9:a9:88:79:0a:72:bf:46:af:bd:3c:c2:cb:c3:
         20:2b:59:33:d9:c5:f8:ad:a7:e8:fb:f5:57:c8:d1:14:f3:1d:
         cb:16:2d:05:47:db:4b:03:19:7e:3a:30:ce:ee:74:33:98:39:
         d6:44:3f:6c:8b:8a:ec:0c:97:7f:1e:1f:ad:3d:be:ce:b4:df:
         c2:86:4d:2e:72:85:3b:04:31:43:c5:57:21:58:23:d7:93:0e:
         fd:65:83:73:7e:a2:4b:e0:9a:d8:ca:60:1d:9d:29:2d:3a:8c:
         92:a6:47:b3:77:24:87:af:9c:6a:a3:7c:13:17:8a:f2:a8:81:
         64:33:fb:49:87:7b:19:9c:f7:ac:a9:76:cb:e9:8c:fd:e1:13:
         44:5f:66:c0:d5:f7:7d:05
-----BEGIN CERTIFICATE-----
MIIDrjCCAZYCAQAwDQYJKoZIhvcNAQELBQAwgYYxCzAJBgNVBAYTAkNUMRIwEAYD
VQQIDAlCYXJjZWxvbmExEzARBgNVBAcMCkJlbGxhdGVycmExETAPBgNVBAoMCFBh
eVNlbnNlMQwwCgYDVQQLDANBQ0ExDDAKBgNVBAMMA0FDQTEfMB0GCSqGSIb3DQEJ
ARYQYWNhQGRlaWMudWFiLmNhdDAeFw0xNTExMDUwOTI4MDJaFw0xNjExMDQwOTI4
MDJaMIGAMQswCQYDVQQGEwJDVDESMBAGA1UECAwJQmFyY2Vsb25hMRMwEQYDVQQH
DApCZWxsYXRlcnJhMQwwCgYDVQQKDANVQUIxDTALBgNVBAsMBERFSUMxKzApBgNV
BAMMIm1qVmo4RFRzaTduRU1IMm9hcnI2M1pLZHFoQThlWm9RWmUwVjAQBgcqhkjO
PQIBBgUrgQQACgNCAAQU9TwjrSOaplFAyWZhCzXRh9wtYHpeJkUFgOcV68g1EjvP
rpU4i927A7MnK/QhGl9uY/jrFNPL0JIK8YCLWeNqMA0GCSqGSIb3DQEBCwUAA4IC
AQAV64NIFKcXmqRXfNaLpqIe+pF5kbXhXLniQouzkc7BinUEMPn9EQB1XVo6L6i+
yTQ9tZEjvVhnqJ2Ohbo6dzTokXQRVl9tEtatrq8n2B1JTZW7iizSaYYzFVdQuA8e
A7t9aGYKZc4bSgTTDR2Xi4wX78K4WAe2Q98p4eNn3DbaprSaOlqT16d8XAACZ/5U
wKpW8WYmqfQrWnxSBqGEMtABoNgicpNgr2byfsvoN81LgMV46OiZpkoX4h47OWJA
SdNIzCz1gPG86ImfSPvJ0hLgW8BXf+eH1DK9XFQxkwdoSQbnU3K7ePf22s+ElsdG
lTxz3T98cGi8D9uNDzj28Lc44B159FlAIvHU4rX9qrRcVbCsB4SeiUBG76sVDpiX
droCsnXXrSeNdVzP4hgyq5MC8g60X0gIguxyIvE82dEkvU+vRcbpR3v/TEhQpy0o
LwZqRI4SktkNsKdamriT9o8DS2/r1ONDNyYXvm5++amIeQpyv0avvTzCy8MgK1kz
2cX4rafo+/VXyNEU8x3LFi0FR9tLAxl+OjDO7nQzmDnWRD9si4rsDJd/Hh+tPb7O
tN/Chk0ucoU7BDFDxVchWCPXkw79ZYNzfqJL4JrYymAdnSktOoySpkezdySHr5xq
o3wTF4ryqIFkM/tJh3sZnPesqXbL6Yz94RNEX2bA1fd9BQ==
-----END CERTIFICATE-----
