Certificate:
    Data:
        Version: 1 (0x0)
        Serial Number: 0 (0x0)
    Signature Algorithm: sha256WithRSAEncryption
        Issuer: C=CT, ST=Barcelona, L=Bellaterra, O=PaySense, OU=ACA, CN=ACA/emailAddress=aca@deic.uab.cat
        Validity
            Not Before: May 25 15:19:37 2015 GMT
            Not After : May 24 15:19:37 2016 GMT
        Subject: C=CA, ST=Barcelona, L=Bellaterra, O=UAB, OU=DEIC, CN=n4KA9X2S35n3EDLoGmqbzrEgYZTNf3y1Eb
        Subject Public Key Info:
            Public Key Algorithm: id-ecPublicKey
                Public-Key: (256 bit)
                pub: 
                    04:10:32:bf:ff:6c:31:57:eb:49:d8:ea:49:8b:be:
                    77:41:70:c1:96:93:26:04:6e:7a:fa:57:35:15:13:
                    a6:31:55:9d:cb:2b:6b:2e:94:18:05:54:d7:6d:e0:
                    74:a5:a0:39:17:2b:17:d3:48:99:52:39:62:d1:d3:
                    bd:6f:36:be:7c
                ASN1 OID: secp256k1
    Signature Algorithm: sha256WithRSAEncryption
         2d:2b:ef:e3:84:26:a3:1e:36:98:8a:6c:43:22:a4:a0:18:3f:
         d0:4f:98:12:5d:c9:f4:ee:5a:fa:12:91:1c:8b:81:bf:ad:a0:
         9b:09:e1:3e:84:81:07:72:cb:64:41:b5:85:c2:15:63:4c:02:
         e2:d1:4c:00:a1:64:4b:2e:bd:51
-----BEGIN CERTIFICATE-----
MIIB7DCCAZYCAQAwDQYJKoZIhvcNAQELBQAwgYYxCzAJBgNVBAYTAkNUMRIwEAYD
VQQIEwlCYXJjZWxvbmExEzARBgNVBAcTCkJlbGxhdGVycmExETAPBgNVBAoTCFBh
eVNlbnNlMQwwCgYDVQQLEwNBQ0ExDDAKBgNVBAMTA0FDQTEfMB0GCSqGSIb3DQEJ
ARYQYWNhQGRlaWMudWFiLmNhdDAeFw0xNTA1MjUxNTE5MzdaFw0xNjA1MjQxNTE5
MzdaMIGAMQswCQYDVQQGEwJDQTESMBAGA1UECAwJQmFyY2Vsb25hMRMwEQYDVQQH
DApCZWxsYXRlcnJhMQwwCgYDVQQKDANVQUIxDTALBgNVBAsMBERFSUMxKzApBgNV
BAMMIm40S0E5WDJTMzVuM0VETG9HbXFienJFZ1laVE5mM3kxRWIwVjAQBgcqhkjO
PQIBBgUrgQQACgNCAAQQMr//bDFX60nY6kmLvndBcMGWkyYEbnr6VzUVE6YxVZ3L
K2sulBgFVNdt4HSloDkXKxfTSJlSOWLR071vNr58MA0GCSqGSIb3DQEBCwUAA0EA
LSvv44Qmox42mIpsQyKkoBg/0E+YEl3J9O5a+hKRHIuBv62gmwnhPoSBB3LLZEG1
hcIVY0wC4tFMAKFkSy69UQ==
-----END CERTIFICATE-----
