Certificate:
    Data:
        Version: 1 (0x0)
        Serial Number: 0 (0x0)
    Signature Algorithm: sha256WithRSAEncryption
        Issuer: C=CT, ST=Barcelona, L=Bellaterra, O=PaySense, OU=ACA, CN=ACA/emailAddress=aca@deic.uab.cat
        Validity
            Not Before: Nov 23 09:45:40 2015 GMT
            Not After : Nov 22 09:45:40 2016 GMT
        Subject: C=CT, ST=Barcelona, L=Bellaterra, O=UAB, OU=DEIC, CN=mwfCfJnqJkq2TrNpnYso7rTzWjnUahSds6
        Subject Public Key Info:
            Public Key Algorithm: id-ecPublicKey
                Public-Key: (256 bit)
                pub: 
                    04:ab:1b:53:19:0e:fb:bf:27:84:b8:35:ac:8c:df:
                    57:1f:94:e2:e2:c1:ac:50:2d:06:0d:59:f2:69:69:
                    b7:2a:ce:a4:13:80:b4:73:b8:58:88:ef:36:c9:0a:
                    df:3b:ef:a7:53:d5:f6:6a:45:8a:a2:36:dd:36:6b:
                    cd:46:d6:95:45
                ASN1 OID: secp256k1
    Signature Algorithm: sha256WithRSAEncryption
         08:a1:a4:86:77:d9:25:5e:69:46:20:3b:33:0d:57:54:e6:c2:
         f8:11:b0:f8:c9:70:0b:93:95:cb:36:f6:72:0b:24:88:cb:66:
         e2:f1:03:e7:47:b4:57:54:b6:5c:28:d5:e0:72:06:a1:1f:b4:
         00:34:6c:3b:49:06:0b:14:31:d3:47:af:8a:2f:63:c3:bd:6d:
         57:0a:d0:ae:a2:4d:42:1b:24:fc:88:30:1c:45:5e:9e:55:7e:
         78:dd:9b:6b:7f:96:bb:7b:c2:de:19:36:4a:a6:d4:18:b8:8f:
         57:17:21:3f:71:3a:95:d1:cb:63:d5:00:da:23:c9:92:d6:70:
         5f:7f:03:d7:53:6d:07:61:2a:8c:64:b7:6d:86:4a:b7:d1:cd:
         4a:11:0f:4a:59:aa:45:41:76:12:ee:0c:e2:32:29:4c:9c:59:
         cd:ee:12:e8:a8:a2:62:3a:9d:20:c7:6b:a5:39:64:f2:13:22:
         0e:fc:ad:b7:4d:dd:37:94:82:e2:76:54:cf:aa:ee:56:90:37:
         40:a9:96:bf:96:0d:d9:f7:17:ab:f2:3a:ef:18:86:23:f9:b3:
         a1:04:33:c9:7e:2c:41:6f:6c:c4:d1:a4:29:62:b4:6e:d0:04:
         ed:98:f6:e1:b0:24:25:bc:00:32:ba:cc:86:8f:80:eb:19:c4:
         7a:54:29:2f:69:0a:03:25:1b:35:1c:49:6e:90:c7:25:38:2f:
         71:c5:d8:d5:d4:86:35:fc:2b:2b:b6:43:a2:d1:4c:2a:4d:a6:
         97:46:22:87:05:60:10:12:00:c2:7f:9c:1e:cf:75:14:4c:72:
         c1:34:b8:a2:85:53:b5:0e:86:64:fa:69:87:54:6b:f3:2e:bf:
         b7:be:ef:53:23:4e:bf:9d:91:4e:aa:7b:8c:03:f8:e6:3c:9c:
         00:05:27:90:4b:75:bc:e1:dd:27:4c:58:02:2e:bf:cf:50:88:
         b4:d0:d2:95:06:a3:d8:0f:f2:ad:d1:c0:84:39:a1:11:b7:6e:
         02:60:0b:0b:71:7d:52:f3:50:c4:d6:45:9f:2e:1d:48:fb:b4:
         22:48:93:af:3e:8e:60:5a:54:03:cd:81:1e:33:3c:41:85:53:
         63:51:46:81:3a:1d:7b:36:bd:dd:16:9b:85:0a:b0:61:ec:6d:
         47:51:2e:46:b7:2c:d0:47:05:c0:21:1f:16:c4:18:12:a6:87:
         37:52:0c:bf:13:5d:c3:5b:03:85:88:34:c6:42:cd:ee:83:4a:
         1a:61:f8:bf:fb:9c:b9:68:8c:6b:4b:7d:62:84:fd:77:8b:3f:
         93:60:20:37:a0:14:7d:0c:29:c6:21:4c:5b:8c:c7:d6:c6:20:
         81:f0:42:e2:e6:6e:ae:14
-----BEGIN CERTIFICATE-----
MIIDrjCCAZYCAQAwDQYJKoZIhvcNAQELBQAwgYYxCzAJBgNVBAYTAkNUMRIwEAYD
VQQIDAlCYXJjZWxvbmExEzARBgNVBAcMCkJlbGxhdGVycmExETAPBgNVBAoMCFBh
eVNlbnNlMQwwCgYDVQQLDANBQ0ExDDAKBgNVBAMMA0FDQTEfMB0GCSqGSIb3DQEJ
ARYQYWNhQGRlaWMudWFiLmNhdDAeFw0xNTExMjMwOTQ1NDBaFw0xNjExMjIwOTQ1
NDBaMIGAMQswCQYDVQQGEwJDVDESMBAGA1UECAwJQmFyY2Vsb25hMRMwEQYDVQQH
DApCZWxsYXRlcnJhMQwwCgYDVQQKDANVQUIxDTALBgNVBAsMBERFSUMxKzApBgNV
BAMMIm13ZkNmSm5xSmtxMlRyTnBuWXNvN3JUeldqblVhaFNkczYwVjAQBgcqhkjO
PQIBBgUrgQQACgNCAASrG1MZDvu/J4S4NayM31cflOLiwaxQLQYNWfJpabcqzqQT
gLRzuFiI7zbJCt8776dT1fZqRYqiNt02a81G1pVFMA0GCSqGSIb3DQEBCwUAA4IC
AQAIoaSGd9klXmlGIDszDVdU5sL4EbD4yXALk5XLNvZyCySIy2bi8QPnR7RXVLZc
KNXgcgahH7QANGw7SQYLFDHTR6+KL2PDvW1XCtCuok1CGyT8iDAcRV6eVX543Ztr
f5a7e8LeGTZKptQYuI9XFyE/cTqV0ctj1QDaI8mS1nBffwPXU20HYSqMZLdthkq3
0c1KEQ9KWapFQXYS7gziMilMnFnN7hLoqKJiOp0gx2ulOWTyEyIO/K23Td03lILi
dlTPqu5WkDdAqZa/lg3Z9xer8jrvGIYj+bOhBDPJfixBb2zE0aQpYrRu0ATtmPbh
sCQlvAAyusyGj4DrGcR6VCkvaQoDJRs1HElukMclOC9xxdjV1IY1/CsrtkOi0Uwq
TaaXRiKHBWAQEgDCf5wez3UUTHLBNLiihVO1DoZk+mmHVGvzLr+3vu9TI06/nZFO
qnuMA/jmPJwABSeQS3W84d0nTFgCLr/PUIi00NKVBqPYD/Kt0cCEOaERt24CYAsL
cX1S81DE1kWfLh1I+7QiSJOvPo5gWlQDzYEeMzxBhVNjUUaBOh17Nr3dFpuFCrBh
7G1HUS5GtyzQRwXAIR8WxBgSpoc3Ugy/E13DWwOFiDTGQs3ug0oaYfi/+5y5aIxr
S31ihP13iz+TYCA3oBR9DCnGIUxbjMfWxiCB8ELi5m6uFA==
-----END CERTIFICATE-----
