Certificate:
    Data:
        Version: 1 (0x0)
        Serial Number: 0 (0x0)
    Signature Algorithm: sha256WithRSAEncryption
        Issuer: C=CT, ST=Barcelona, L=Bellaterra, O=PaySense, OU=ACA, CN=ACA/emailAddress=aca@deic.uab.cat
        Validity
            Not Before: Nov 23 09:45:48 2015 GMT
            Not After : Nov 22 09:45:48 2016 GMT
        Subject: C=CT, ST=Barcelona, L=Bellaterra, O=UAB, OU=DEIC, CN=mgM6E2kFyJ5noR4sz7idwip4FtT26MzJ6K
        Subject Public Key Info:
            Public Key Algorithm: id-ecPublicKey
                Public-Key: (256 bit)
                pub: 
                    04:b2:c7:ff:11:6e:e0:b2:6f:74:d4:c3:a8:ba:9d:
                    34:73:7d:45:46:f0:ee:8b:4a:74:65:cd:ce:57:e7:
                    fc:32:96:72:a7:0b:b1:59:30:f7:4e:f5:af:00:ef:
                    28:5d:6e:71:49:2b:c6:fb:c0:45:8b:d9:2f:28:31:
                    1c:4d:be:81:e0
                ASN1 OID: secp256k1
    Signature Algorithm: sha256WithRSAEncryption
         6a:2c:6a:0e:5c:e9:bf:73:d2:c7:c5:b2:b8:84:8e:07:b0:d8:
         d5:c6:97:9d:6c:8e:29:b1:3c:a7:66:80:cb:37:be:7e:1d:2b:
         b0:25:34:54:b3:96:58:3d:9c:bd:5b:30:cb:96:67:ba:f3:e0:
         d1:40:63:d3:7a:94:8e:70:33:d2:ae:1e:99:e9:7f:51:9e:22:
         46:49:21:ba:5d:79:a9:3e:e0:39:09:3f:22:bb:ba:2e:7b:3e:
         10:c1:34:fd:75:fb:5a:5f:63:74:df:04:ce:11:b0:51:4b:b3:
         95:73:a7:1c:36:74:4a:8e:42:91:0b:e4:b6:82:2b:02:a0:2b:
         2c:69:46:3f:16:94:f5:b2:90:e0:c0:56:f4:b6:26:39:7e:a7:
         9b:a5:95:40:ae:89:ee:61:24:94:02:16:53:35:a8:4d:7f:7f:
         b6:05:17:6e:90:25:d5:86:08:d9:12:17:ab:e4:9f:ff:99:ed:
         14:ba:5d:ad:82:f1:03:be:67:89:9d:8c:d2:fb:14:13:f1:ab:
         d2:be:0f:f0:20:36:53:eb:fd:fa:72:65:07:75:56:f6:dd:ab:
         58:71:d4:cc:a1:3f:80:31:57:bb:60:c7:e7:2c:53:7e:78:3a:
         2a:d3:d3:ee:4c:41:f0:6f:32:2b:ed:03:9f:b0:8b:19:38:78:
         b4:d3:af:e3:f6:bb:cb:45:69:a9:64:ee:9b:65:ff:18:c2:64:
         28:7d:6d:f8:2e:17:89:c1:2c:d2:f8:c0:9d:99:e3:69:a1:73:
         3b:2d:36:c5:9b:29:b8:2a:83:cf:ee:40:2e:31:ba:74:18:e8:
         99:77:94:8d:1f:b0:13:2d:93:52:cf:39:84:9b:aa:c1:cb:dc:
         f1:76:22:25:cd:5a:4f:3f:17:a4:34:a2:eb:a1:bd:cd:82:7a:
         ed:fc:06:21:d0:11:0f:d0:cf:10:04:29:b4:84:18:c1:ae:86:
         78:9d:c0:61:ac:3e:95:51:0d:7d:db:94:b6:2b:37:75:c7:ed:
         67:47:79:30:04:12:41:a2:4d:09:57:54:ba:de:ab:39:57:88:
         c2:a2:e9:54:60:a6:b0:3c:b5:a7:36:d2:95:44:88:7c:45:e5:
         2e:e3:70:37:7f:e6:f1:a1:51:44:f3:b3:68:71:03:40:f9:de:
         ad:54:e3:9d:df:9c:08:13:b4:5f:2b:ca:72:48:1d:cd:a7:5a:
         96:d0:4d:e4:ce:a3:75:fe:8d:a9:34:3e:6a:cb:8e:f7:bc:f2:
         62:43:ac:fc:67:01:f3:9c:fd:4b:98:78:85:02:6c:76:b2:e0:
         ca:e5:86:de:b7:d9:46:bf:d9:89:17:0b:a2:c7:28:40:2a:21:
         1e:8d:7d:8c:ac:73:8b:1c
-----BEGIN CERTIFICATE-----
MIIDrjCCAZYCAQAwDQYJKoZIhvcNAQELBQAwgYYxCzAJBgNVBAYTAkNUMRIwEAYD
VQQIDAlCYXJjZWxvbmExEzARBgNVBAcMCkJlbGxhdGVycmExETAPBgNVBAoMCFBh
eVNlbnNlMQwwCgYDVQQLDANBQ0ExDDAKBgNVBAMMA0FDQTEfMB0GCSqGSIb3DQEJ
ARYQYWNhQGRlaWMudWFiLmNhdDAeFw0xNTExMjMwOTQ1NDhaFw0xNjExMjIwOTQ1
NDhaMIGAMQswCQYDVQQGEwJDVDESMBAGA1UECAwJQmFyY2Vsb25hMRMwEQYDVQQH
DApCZWxsYXRlcnJhMQwwCgYDVQQKDANVQUIxDTALBgNVBAsMBERFSUMxKzApBgNV
BAMMIm1nTTZFMmtGeUo1bm9SNHN6N2lkd2lwNEZ0VDI2TXpKNkswVjAQBgcqhkjO
PQIBBgUrgQQACgNCAASyx/8RbuCyb3TUw6i6nTRzfUVG8O6LSnRlzc5X5/wylnKn
C7FZMPdO9a8A7yhdbnFJK8b7wEWL2S8oMRxNvoHgMA0GCSqGSIb3DQEBCwUAA4IC
AQBqLGoOXOm/c9LHxbK4hI4HsNjVxpedbI4psTynZoDLN75+HSuwJTRUs5ZYPZy9
WzDLlme68+DRQGPTepSOcDPSrh6Z6X9RniJGSSG6XXmpPuA5CT8iu7ouez4QwTT9
dftaX2N03wTOEbBRS7OVc6ccNnRKjkKRC+S2gisCoCssaUY/FpT1spDgwFb0tiY5
fqebpZVAronuYSSUAhZTNahNf3+2BRdukCXVhgjZEher5J//me0Uul2tgvEDvmeJ
nYzS+xQT8avSvg/wIDZT6/36cmUHdVb23atYcdTMoT+AMVe7YMfnLFN+eDoq09Pu
TEHwbzIr7QOfsIsZOHi006/j9rvLRWmpZO6bZf8YwmQofW34LheJwSzS+MCdmeNp
oXM7LTbFmym4KoPP7kAuMbp0GOiZd5SNH7ATLZNSzzmEm6rBy9zxdiIlzVpPPxek
NKLrob3Ngnrt/AYh0BEP0M8QBCm0hBjBroZ4ncBhrD6VUQ1925S2Kzd1x+1nR3kw
BBJBok0JV1S63qs5V4jCoulUYKawPLWnNtKVRIh8ReUu43A3f+bxoVFE87NocQNA
+d6tVOOd35wIE7RfK8pySB3Np1qW0E3kzqN1/o2pND5qy473vPJiQ6z8ZwHznP1L
mHiFAmx2suDK5Ybet9lGv9mJFwuixyhAKiEejX2MrHOLHA==
-----END CERTIFICATE-----
