Certificate:
    Data:
        Version: 1 (0x0)
        Serial Number: 0 (0x0)
    Signature Algorithm: sha256WithRSAEncryption
        Issuer: C=CT, ST=Barcelona, L=Bellaterra, O=PaySense, OU=ACA, CN=ACA/emailAddress=aca@deic.uab.cat
        Validity
            Not Before: May  4 09:42:47 2015 GMT
            Not After : May  3 09:42:47 2016 GMT
        Subject: C=CA, ST=Barcelona, L=Bellaterra, O=UAB, OU=DEIC, CN=1B5m8XbnTGHvPgz2DQW1m1UuwrEHDWvDFX
        Subject Public Key Info:
            Public Key Algorithm: id-ecPublicKey
                Public-Key: (256 bit)
                pub: 
                    04:c2:8f:87:6c:c6:31:1e:77:16:80:85:4a:c4:61:
                    a0:a0:47:ac:89:18:23:5e:03:76:82:07:58:29:5e:
                    b3:67:27:7c:e1:15:7a:11:bf:87:42:3c:79:99:0b:
                    fe:16:ac:0e:7f:36:23:f4:57:94:cc:57:5b:1f:cf:
                    82:29:4d:2e:d9
                ASN1 OID: secp256k1
    Signature Algorithm: sha256WithRSAEncryption
         64:d9:42:60:7e:c0:c3:e0:d7:86:bb:6e:e5:ee:dd:7e:cb:7c:
         7a:ff:fe:d4:0c:10:f3:92:eb:2d:aa:e4:ab:69:ce:ef:2c:83:
         ba:f2:9a:57:65:65:49:49:c3:2b:40:7f:88:00:fa:df:41:57:
         15:d7:87:17:8f:95:7f:1f:8d:dd
-----BEGIN CERTIFICATE-----
MIIB7DCCAZYCAQAwDQYJKoZIhvcNAQELBQAwgYYxCzAJBgNVBAYTAkNUMRIwEAYD
VQQIEwlCYXJjZWxvbmExEzARBgNVBAcTCkJlbGxhdGVycmExETAPBgNVBAoTCFBh
eVNlbnNlMQwwCgYDVQQLEwNBQ0ExDDAKBgNVBAMTA0FDQTEfMB0GCSqGSIb3DQEJ
ARYQYWNhQGRlaWMudWFiLmNhdDAeFw0xNTA1MDQwOTQyNDdaFw0xNjA1MDMwOTQy
NDdaMIGAMQswCQYDVQQGEwJDQTESMBAGA1UECAwJQmFyY2Vsb25hMRMwEQYDVQQH
DApCZWxsYXRlcnJhMQwwCgYDVQQKDANVQUIxDTALBgNVBAsMBERFSUMxKzApBgNV
BAMMIjFCNW04WGJuVEdIdlBnejJEUVcxbTFVdXdyRUhEV3ZERlgwVjAQBgcqhkjO
PQIBBgUrgQQACgNCAATCj4dsxjEedxaAhUrEYaCgR6yJGCNeA3aCB1gpXrNnJ3zh
FXoRv4dCPHmZC/4WrA5/NiP0V5TMV1sfz4IpTS7ZMA0GCSqGSIb3DQEBCwUAA0EA
ZNlCYH7Aw+DXhrtu5e7dfst8ev/+1AwQ85LrLarkq2nO7yyDuvKaV2VlSUnDK0B/
iAD630FXFdeHF4+Vfx+N3Q==
-----END CERTIFICATE-----
