Certificate:
    Data:
        Version: 1 (0x0)
        Serial Number: 0 (0x0)
    Signature Algorithm: sha256WithRSAEncryption
        Issuer: C=CT, ST=Barcelona, L=Bellaterra, O=PaySense, OU=ACA, CN=ACA/emailAddress=aca@deic.uab.cat
        Validity
            Not Before: May  4 13:06:34 2015 GMT
            Not After : May  3 13:06:34 2016 GMT
        Subject: C=CA, ST=Barcelona, L=Bellaterra, O=UAB, OU=DEIC, CN=mtSLzvNAZnrpyGW1UBkmb3ovap8myuMJrZ
        Subject Public Key Info:
            Public Key Algorithm: id-ecPublicKey
                Public-Key: (256 bit)
                pub: 
                    04:47:e0:4b:45:df:7d:57:8e:1c:bc:f4:18:ed:4d:
                    dc:d7:5a:c1:ed:3c:9a:b0:f6:f5:96:f2:fd:b0:e1:
                    c3:22:b2:d4:99:ff:91:44:82:e9:a5:52:7b:f5:b8:
                    83:f0:f2:c8:15:c9:23:a7:ba:03:7e:17:7c:cd:45:
                    5a:7b:48:ff:b3
                ASN1 OID: secp256k1
    Signature Algorithm: sha256WithRSAEncryption
         09:f0:2d:04:9c:fe:45:31:9d:13:c5:10:2d:dd:fb:4f:2b:59:
         ee:3d:f5:1a:cc:28:1b:b5:f0:7b:ee:d7:95:db:82:34:31:c4:
         1d:89:c5:2a:92:09:2d:09:51:55:28:5c:fb:ec:e8:a8:57:20:
         d3:59:86:24:29:3a:48:f4:da:b4
-----BEGIN CERTIFICATE-----
MIIB7DCCAZYCAQAwDQYJKoZIhvcNAQELBQAwgYYxCzAJBgNVBAYTAkNUMRIwEAYD
VQQIEwlCYXJjZWxvbmExEzARBgNVBAcTCkJlbGxhdGVycmExETAPBgNVBAoTCFBh
eVNlbnNlMQwwCgYDVQQLEwNBQ0ExDDAKBgNVBAMTA0FDQTEfMB0GCSqGSIb3DQEJ
ARYQYWNhQGRlaWMudWFiLmNhdDAeFw0xNTA1MDQxMzA2MzRaFw0xNjA1MDMxMzA2
MzRaMIGAMQswCQYDVQQGEwJDQTESMBAGA1UECAwJQmFyY2Vsb25hMRMwEQYDVQQH
DApCZWxsYXRlcnJhMQwwCgYDVQQKDANVQUIxDTALBgNVBAsMBERFSUMxKzApBgNV
BAMMIm10U0x6dk5BWm5ycHlHVzFVQmttYjNvdmFwOG15dU1KclowVjAQBgcqhkjO
PQIBBgUrgQQACgNCAARH4EtF331Xjhy89BjtTdzXWsHtPJqw9vWW8v2w4cMistSZ
/5FEgumlUnv1uIPw8sgVySOnugN+F3zNRVp7SP+zMA0GCSqGSIb3DQEBCwUAA0EA
CfAtBJz+RTGdE8UQLd37TytZ7j31GswoG7Xwe+7XlduCNDHEHYnFKpIJLQlRVShc
++zoqFcg01mGJCk6SPTatA==
-----END CERTIFICATE-----
