Certificate:
    Data:
        Version: 1 (0x0)
        Serial Number: 0 (0x0)
    Signature Algorithm: sha256WithRSAEncryption
        Issuer: C=CT, ST=Barcelona, L=Bellaterra, O=PaySense, OU=ACA, CN=ACA/emailAddress=aca@deic.uab.cat
        Validity
            Not Before: May 25 15:35:04 2015 GMT
            Not After : May 24 15:35:04 2016 GMT
        Subject: C=CA, ST=Barcelona, L=Bellaterra, O=UAB, OU=DEIC, CN=n21HQXRWgbW3XTFTQ44vYDsxi62ve9VXwK
        Subject Public Key Info:
            Public Key Algorithm: id-ecPublicKey
                Public-Key: (256 bit)
                pub: 
                    04:a8:c0:a8:d3:27:68:99:40:62:ca:67:6d:19:7b:
                    c2:5a:4f:6d:71:da:6c:0e:46:0b:b6:f0:fc:95:de:
                    08:e2:ff:2a:be:59:12:3e:09:ba:47:28:c7:42:0e:
                    a5:1e:53:dd:db:af:76:41:0c:30:33:b6:4c:07:ef:
                    57:83:22:0f:3c
                ASN1 OID: secp256k1
    Signature Algorithm: sha256WithRSAEncryption
         24:00:30:00:a5:6e:9e:5e:44:88:5f:95:46:c1:87:2b:0f:e9:
         00:d6:06:b5:3f:f8:bc:ea:32:32:c9:cd:96:98:bf:47:bf:95:
         4a:e8:7c:13:13:3b:0c:12:fe:40:03:d0:b3:51:6a:33:b3:38:
         2d:be:01:85:96:1c:31:c0:34:61
-----BEGIN CERTIFICATE-----
MIIB7DCCAZYCAQAwDQYJKoZIhvcNAQELBQAwgYYxCzAJBgNVBAYTAkNUMRIwEAYD
VQQIEwlCYXJjZWxvbmExEzARBgNVBAcTCkJlbGxhdGVycmExETAPBgNVBAoTCFBh
eVNlbnNlMQwwCgYDVQQLEwNBQ0ExDDAKBgNVBAMTA0FDQTEfMB0GCSqGSIb3DQEJ
ARYQYWNhQGRlaWMudWFiLmNhdDAeFw0xNTA1MjUxNTM1MDRaFw0xNjA1MjQxNTM1
MDRaMIGAMQswCQYDVQQGEwJDQTESMBAGA1UECAwJQmFyY2Vsb25hMRMwEQYDVQQH
DApCZWxsYXRlcnJhMQwwCgYDVQQKDANVQUIxDTALBgNVBAsMBERFSUMxKzApBgNV
BAMMIm4yMUhRWFJXZ2JXM1hURlRRNDR2WURzeGk2MnZlOVZYd0swVjAQBgcqhkjO
PQIBBgUrgQQACgNCAASowKjTJ2iZQGLKZ20Ze8JaT21x2mwORgu28PyV3gji/yq+
WRI+CbpHKMdCDqUeU93br3ZBDDAztkwH71eDIg88MA0GCSqGSIb3DQEBCwUAA0EA
JAAwAKVunl5EiF+VRsGHKw/pANYGtT/4vOoyMsnNlpi/R7+VSuh8ExM7DBL+QAPQ
s1FqM7M4Lb4BhZYcMcA0YQ==
-----END CERTIFICATE-----
