Certificate:
    Data:
        Version: 1 (0x0)
        Serial Number: 0 (0x0)
    Signature Algorithm: sha256WithRSAEncryption
        Issuer: C=CT, ST=Barcelona, L=Bellaterra, O=PaySense, OU=ACA, CN=ACA/emailAddress=aca@deic.uab.cat
        Validity
            Not Before: Nov  2 14:08:37 2015 GMT
            Not After : Nov  1 14:08:37 2016 GMT
        Subject: C=CT, ST=Barcelona, L=Bellaterra, O=UAB, OU=DEIC, CN=mhEyJoDvzTvGq4v1eQnyWnCxAe4RZ5JZ8N
        Subject Public Key Info:
            Public Key Algorithm: id-ecPublicKey
                Public-Key: (256 bit)
                pub: 
                    04:3d:17:a4:6b:fd:91:9a:aa:01:30:2d:98:cd:40:
                    4b:f9:ae:33:cd:2f:34:6b:b3:c2:bc:f8:bc:2e:23:
                    c2:c2:2b:6d:f3:ed:42:15:a6:df:6a:24:a7:58:b6:
                    8e:fb:e2:41:f1:8e:2f:77:7a:53:8c:96:53:2a:52:
                    c6:13:9f:27:09
                ASN1 OID: secp256k1
    Signature Algorithm: sha256WithRSAEncryption
         95:d8:05:77:87:d8:8d:c4:83:97:53:96:c4:65:ad:de:03:e2:
         5f:da:23:49:62:40:aa:ee:2d:df:ea:9f:c9:9f:a3:a0:5d:21:
         92:9b:f7:9a:b1:ed:22:85:ee:a8:a2:02:1d:03:7d:ea:07:20:
         16:bd:d4:82:88:b9:d6:d9:1c:4a:ca:65:cc:62:35:33:8e:f9:
         f5:9a:c4:83:ba:c9:1b:e1:2e:78:c2:67:b4:1a:1b:a6:0f:60:
         92:10:c5:67:06:d9:f4:ec:ba:2d:d2:44:1d:cd:76:e8:4b:5b:
         b5:05:76:f7:57:55:53:77:f9:8f:11:d2:ea:86:2e:4a:fa:29:
         18:99:f2:cd:22:4d:b5:3b:8d:f4:57:d6:f4:3b:a2:e1:15:e6:
         38:9d:1f:59:62:3d:8c:d7:01:9c:fb:cd:6a:a0:db:f6:ab:ed:
         97:ea:fd:12:64:5a:38:ff:1d:7c:b3:8e:fe:9d:0d:0d:de:cb:
         a2:1f:51:62:01:21:bd:eb:87:b8:04:1e:9e:54:d8:b7:21:dd:
         25:04:7d:cf:d0:d3:3f:9f:7b:96:87:5b:45:e6:05:b7:5a:6e:
         65:a8:73:96:5e:ab:86:0a:76:5e:65:7d:ad:6a:ce:20:ff:e3:
         ee:1f:3a:2a:b3:d1:8f:0b:fd:6d:af:56:53:0b:15:2d:b9:44:
         65:6e:b6:59:93:2e:ea:8d:42:e6:b6:31:cf:78:c4:ef:27:eb:
         43:56:e7:59:07:cd:32:26:a6:3b:a9:eb:b4:3b:4c:66:0f:00:
         17:82:8e:84:b8:01:61:c0:0e:13:d5:65:b0:0a:22:07:9a:94:
         c9:9b:25:25:34:47:9e:49:a6:8b:4b:b6:e7:b7:57:1f:9b:33:
         98:3b:e5:06:31:1f:9b:ca:b7:cb:ea:5d:62:59:c9:e3:d7:c8:
         42:ef:53:35:ce:a1:4e:8f:bb:4f:3d:8d:a3:23:3f:61:b8:89:
         db:83:79:90:bc:99:11:2a:3d:6a:1e:18:c4:9e:c6:58:56:0c:
         78:64:4f:22:0d:83:cf:54:7a:86:71:bd:44:c0:8f:54:bc:d6:
         19:89:97:0b:a6:98:ec:b1:ef:ab:1b:06:c8:03:13:1a:79:4a:
         e2:32:72:92:ba:aa:5b:9b:5f:99:40:85:eb:87:0c:10:24:95:
         87:c3:04:18:cb:62:bb:97:e8:34:ff:07:24:f1:c2:f1:32:0e:
         ce:6f:8e:b2:1c:1f:64:36:8d:f0:d7:44:a4:35:fe:4f:0a:1d:
         63:95:e3:c9:53:ff:a9:1b:e6:de:f5:cc:51:96:71:3e:5e:eb:
         0f:f7:da:78:82:1c:74:20:47:7d:55:a2:c2:fa:36:e9:a6:48:
         26:13:af:47:f1:7f:27:74
-----BEGIN CERTIFICATE-----
MIIDrjCCAZYCAQAwDQYJKoZIhvcNAQELBQAwgYYxCzAJBgNVBAYTAkNUMRIwEAYD
VQQIDAlCYXJjZWxvbmExEzARBgNVBAcMCkJlbGxhdGVycmExETAPBgNVBAoMCFBh
eVNlbnNlMQwwCgYDVQQLDANBQ0ExDDAKBgNVBAMMA0FDQTEfMB0GCSqGSIb3DQEJ
ARYQYWNhQGRlaWMudWFiLmNhdDAeFw0xNTExMDIxNDA4MzdaFw0xNjExMDExNDA4
MzdaMIGAMQswCQYDVQQGEwJDVDESMBAGA1UECAwJQmFyY2Vsb25hMRMwEQYDVQQH
DApCZWxsYXRlcnJhMQwwCgYDVQQKDANVQUIxDTALBgNVBAsMBERFSUMxKzApBgNV
BAMMIm1oRXlKb0R2elR2R3E0djFlUW55V25DeEFlNFJaNUpaOE4wVjAQBgcqhkjO
PQIBBgUrgQQACgNCAAQ9F6Rr/ZGaqgEwLZjNQEv5rjPNLzRrs8K8+LwuI8LCK23z
7UIVpt9qJKdYto774kHxji93elOMllMqUsYTnycJMA0GCSqGSIb3DQEBCwUAA4IC
AQCV2AV3h9iNxIOXU5bEZa3eA+Jf2iNJYkCq7i3f6p/Jn6OgXSGSm/ease0ihe6o
ogIdA33qByAWvdSCiLnW2RxKymXMYjUzjvn1msSDuskb4S54wme0GhumD2CSEMVn
Btn07Lot0kQdzXboS1u1BXb3V1VTd/mPEdLqhi5K+ikYmfLNIk21O430V9b0O6Lh
FeY4nR9ZYj2M1wGc+81qoNv2q+2X6v0SZFo4/x18s47+nQ0N3suiH1FiASG964e4
BB6eVNi3Id0lBH3P0NM/n3uWh1tF5gW3Wm5lqHOWXquGCnZeZX2tas4g/+PuHzoq
s9GPC/1tr1ZTCxUtuURlbrZZky7qjULmtjHPeMTvJ+tDVudZB80yJqY7qeu0O0xm
DwAXgo6EuAFhwA4T1WWwCiIHmpTJmyUlNEeeSaaLS7bnt1cfmzOYO+UGMR+byrfL
6l1iWcnj18hC71M1zqFOj7tPPY2jIz9huInbg3mQvJkRKj1qHhjEnsZYVgx4ZE8i
DYPPVHqGcb1EwI9UvNYZiZcLppjsse+rGwbIAxMaeUriMnKSuqpbm1+ZQIXrhwwQ
JJWHwwQYy2K7l+g0/wck8cLxMg7Ob46yHB9kNo3w10SkNf5PCh1jlePJU/+pG+be
9cxRlnE+XusP99p4ghx0IEd9VaLC+jbppkgmE69H8X8ndA==
-----END CERTIFICATE-----
