Certificate:
    Data:
        Version: 3 (0x2)
        Serial Number: 12050369289985915487 (0xa73b83060de2fa5f)
    Signature Algorithm: sha1WithRSAEncryption
        Issuer: C=CT, ST=Barcelona, L=Bellaterra, O=PaySense, OU=ACA, CN=ACA/emailAddress=aca@deic.uab.cat
        Validity
            Not Before: Jul  7 13:15:28 2015 GMT
            Not After : Jul  6 13:15:28 2020 GMT
        Subject: C=CT, ST=Barcelona, L=Bellaterra, O=PaySense, OU=ACA, CN=ACA/emailAddress=aca@deic.uab.cat
        Subject Public Key Info:
            Public Key Algorithm: rsaEncryption
                Public-Key: (4096 bit)
                Modulus:
                    00:9c:61:4e:02:5f:46:ff:68:77:d2:36:01:2f:81:
                    ce:31:4c:e4:0f:04:03:b5:0e:61:2f:6c:18:b8:ef:
                    22:df:09:f5:fc:6e:de:b5:6b:d8:45:e6:d1:de:39:
                    c1:67:84:9b:98:e6:f7:27:cf:74:c5:b1:da:30:31:
                    48:5a:a0:68:20:7f:b8:09:23:29:06:b5:03:d7:36:
                    9d:4d:6f:30:85:15:3c:cf:21:49:89:f0:12:31:d7:
                    54:43:81:4d:a0:20:dd:52:d3:ed:d2:09:f9:d3:a3:
                    f9:5e:8a:9d:b3:ae:38:90:fa:f4:45:ed:08:cb:d4:
                    58:51:6b:05:92:25:60:23:d6:38:96:2d:a1:12:49:
                    13:89:32:a6:43:41:4a:4b:b5:97:5c:7e:6d:f8:2a:
                    f9:c3:7a:68:a8:c7:86:4f:34:0d:54:5f:fb:91:14:
                    7f:e0:39:87:5c:c3:81:06:ca:20:a6:c2:2f:46:a0:
                    01:a2:75:3b:aa:a7:c4:6d:5d:c9:1d:56:e6:2e:64:
                    d8:21:d0:f8:ed:04:2c:4e:a6:be:e7:7c:e5:b7:c9:
                    53:04:65:4f:51:66:ad:01:a1:4e:09:4f:e4:d5:77:
                    0f:f2:34:d3:00:61:e5:27:73:4d:78:45:c3:ec:f8:
                    2e:77:09:89:a2:85:0c:bb:77:27:c1:0d:a8:6e:e2:
                    34:7d:0b:cb:43:a7:44:14:99:6b:b3:74:3a:49:8f:
                    5d:9f:dc:8c:43:e6:75:64:bf:c4:2d:10:f4:40:44:
                    58:07:50:ce:f7:ae:0f:c2:e2:57:2e:6c:0e:7a:97:
                    7a:8b:2f:4b:50:8f:7d:e4:6a:b5:6c:6e:85:e6:d5:
                    e7:71:ab:5f:bd:b6:b1:14:cb:df:09:4d:9f:de:00:
                    e7:2a:7a:84:99:f9:02:2c:ad:8d:ff:19:ed:a0:31:
                    32:6d:e9:98:68:59:13:6b:98:ac:e2:c4:5c:09:b3:
                    d5:83:42:e8:17:da:da:dc:8d:91:74:27:b5:43:ac:
                    41:2c:2c:de:fd:9c:da:88:b0:f1:7b:f8:4f:d5:1e:
                    ed:f2:7c:3a:66:66:5e:26:01:c1:71:29:c7:d9:cc:
                    5c:0c:16:e5:eb:40:e6:89:82:9a:0c:f6:27:36:70:
                    b7:ce:8f:f7:73:ab:7d:75:3a:af:ef:57:fe:16:af:
                    6c:70:01:0f:08:da:42:3c:68:11:23:80:05:08:af:
                    67:4a:30:c1:81:cb:2c:6e:ee:d2:b3:42:18:58:ab:
                    2a:e2:2f:6e:4a:5f:cc:f3:39:3e:dd:e9:56:1a:b5:
                    26:2d:59:d6:e5:81:fc:b4:a0:03:e3:f9:77:17:96:
                    96:8a:be:1d:8d:1f:19:47:71:75:fb:c1:53:dd:d3:
                    a4:92:ed
                Exponent: 65537 (0x10001)
        X509v3 extensions:
            X509v3 Subject Key Identifier:
                0A:05:AA:4F:AB:A9:79:27:FA:13:CA:A0:DD:21:02:17:41:71:1A:23
            X509v3 Authority Key Identifier:
                keyid:0A:05:AA:4F:AB:A9:79:27:FA:13:CA:A0:DD:21:02:17:41:71:1A:23

            X509v3 Basic Constraints:
                CA:TRUE
    Signature Algorithm: sha1WithRSAEncryption
         36:a1:40:1a:06:61:73:08:9d:07:1a:93:42:72:c3:91:eb:bd:
         83:72:ca:b5:dd:85:8d:3a:19:ed:b2:ea:8b:6d:0b:52:19:d7:
         8f:9f:93:f9:94:e9:68:5b:a1:06:d4:63:8b:b7:91:56:57:64:
         05:d8:a7:5f:04:16:9e:56:ef:90:06:5d:f0:66:19:26:d9:46:
         d6:92:34:17:44:26:3e:61:8d:46:42:5b:46:24:23:1f:b5:ed:
         b1:ed:78:ac:d6:a6:c0:4a:b0:b2:c8:e4:cf:ab:63:f8:21:02:
         30:a0:28:bc:d0:b1:30:d8:0c:0a:cd:75:3e:25:e6:9a:aa:a6:
         ad:53:ef:a0:ad:2a:19:96:cd:71:43:0e:b7:81:d4:8d:2d:30:
         3e:4c:7f:29:7c:55:e8:c8:ed:14:dc:21:23:32:2f:4b:a5:7f:
         d0:49:00:dd:8f:fa:34:99:1c:73:89:66:6f:d7:69:ba:c1:4e:
         12:c0:66:79:e5:61:c4:d7:14:90:d8:13:f5:56:a0:4c:e0:7a:
         07:93:cc:f5:d6:b3:35:a4:d3:60:73:3f:10:1f:d2:bf:fb:38:
         44:9b:07:48:18:e7:35:df:d2:2a:95:09:05:00:96:d9:4a:9d:
         9d:44:a7:52:76:ca:a6:f7:4d:44:25:c3:51:b3:0a:96:bf:98:
         12:74:24:81:a0:29:8e:f0:f1:e9:a0:94:53:0c:c2:26:98:b3:
         e6:dc:98:7d:b0:37:18:e7:13:9d:cf:1b:b5:57:eb:32:2b:a1:
         31:53:da:41:e1:ea:95:ec:e8:f5:d6:13:f5:9f:40:f6:35:54:
         e7:54:27:44:1a:8c:81:33:fe:d4:23:28:b0:df:12:a5:7e:b0:
         1c:c1:36:c6:e9:eb:00:12:36:fb:aa:e3:f5:22:b4:43:0c:4c:
         29:52:b2:7e:62:6a:67:bd:53:7e:10:d4:f8:3b:cd:cc:7b:e2:
         a1:c8:dc:24:f2:e2:a0:6d:d6:6c:3a:0c:92:43:5a:2d:27:6f:
         d5:07:4e:ef:3d:ea:b6:31:82:99:08:ce:85:ab:35:9d:b7:f0:
         25:ab:6e:70:64:62:b5:52:b7:24:c0:16:3f:9b:79:35:55:79:
         83:f6:5c:ad:e1:54:18:a8:6a:2a:5e:06:79:df:30:39:21:84:
         66:a7:6b:d0:03:80:3d:6a:87:db:4b:6a:7c:b1:a1:3b:37:7d:
         36:e0:33:08:d5:6a:61:a6:77:78:b1:81:55:df:26:16:0c:62:
         ec:f1:f4:60:ff:b6:85:1e:22:68:cb:74:43:83:52:89:cf:8c:
         13:ab:1d:f2:c2:72:a3:34:fd:66:9b:3e:86:65:06:3d:73:ec:
         99:01:b1:f0:15:7d:8a:b0
-----BEGIN CERTIFICATE-----
MIIF4TCCA8mgAwIBAgIJAKc7gwYN4vpfMA0GCSqGSIb3DQEBBQUAMIGGMQswCQYD
VQQGEwJDVDESMBAGA1UECAwJQmFyY2Vsb25hMRMwEQYDVQQHDApCZWxsYXRlcnJh
MREwDwYDVQQKDAhQYXlTZW5zZTEMMAoGA1UECwwDQUNBMQwwCgYDVQQDDANBQ0Ex
HzAdBgkqhkiG9w0BCQEWEGFjYUBkZWljLnVhYi5jYXQwHhcNMTUwNzA3MTMxNTI4
WhcNMjAwNzA2MTMxNTI4WjCBhjELMAkGA1UEBhMCQ1QxEjAQBgNVBAgMCUJhcmNl
bG9uYTETMBEGA1UEBwwKQmVsbGF0ZXJyYTERMA8GA1UECgwIUGF5U2Vuc2UxDDAK
BgNVBAsMA0FDQTEMMAoGA1UEAwwDQUNBMR8wHQYJKoZIhvcNAQkBFhBhY2FAZGVp
Yy51YWIuY2F0MIICIjANBgkqhkiG9w0BAQEFAAOCAg8AMIICCgKCAgEAnGFOAl9G
/2h30jYBL4HOMUzkDwQDtQ5hL2wYuO8i3wn1/G7etWvYRebR3jnBZ4SbmOb3J890
xbHaMDFIWqBoIH+4CSMpBrUD1zadTW8whRU8zyFJifASMddUQ4FNoCDdUtPt0gn5
06P5Xoqds644kPr0Re0Iy9RYUWsFkiVgI9Y4li2hEkkTiTKmQ0FKS7WXXH5t+Cr5
w3poqMeGTzQNVF/7kRR/4DmHXMOBBsogpsIvRqABonU7qqfEbV3JHVbmLmTYIdD4
7QQsTqa+53zlt8lTBGVPUWatAaFOCU/k1XcP8jTTAGHlJ3NNeEXD7PgudwmJooUM
u3cnwQ2obuI0fQvLQ6dEFJlrs3Q6SY9dn9yMQ+Z1ZL/ELRD0QERYB1DO964PwuJX
LmwOepd6iy9LUI995Gq1bG6F5tXncatfvbaxFMvfCU2f3gDnKnqEmfkCLK2N/xnt
oDEybemYaFkTa5is4sRcCbPVg0LoF9ra3I2RdCe1Q6xBLCze/ZzaiLDxe/hP1R7t
8nw6ZmZeJgHBcSnH2cxcDBbl60DmiYKaDPYnNnC3zo/3c6t9dTqv71f+Fq9scAEP
CNpCPGgRI4AFCK9nSjDBgcssbu7Ss0IYWKsq4i9uSl/M8zk+3elWGrUmLVnW5YH8
tKAD4/l3F5aWir4djR8ZR3F1+8FT3dOkku0CAwEAAaNQME4wHQYDVR0OBBYEFAoF
qk+rqXkn+hPKoN0hAhdBcRojMB8GA1UdIwQYMBaAFAoFqk+rqXkn+hPKoN0hAhdB
cRojMAwGA1UdEwQFMAMBAf8wDQYJKoZIhvcNAQEFBQADggIBADahQBoGYXMInQca
k0Jyw5HrvYNyyrXdhY06Ge2y6ottC1IZ14+fk/mU6WhboQbUY4u3kVZXZAXYp18E
Fp5W75AGXfBmGSbZRtaSNBdEJj5hjUZCW0YkIx+17bHteKzWpsBKsLLI5M+rY/gh
AjCgKLzQsTDYDArNdT4l5pqqpq1T76CtKhmWzXFDDreB1I0tMD5Mfyl8VejI7RTc
ISMyL0ulf9BJAN2P+jSZHHOJZm/XabrBThLAZnnlYcTXFJDYE/VWoEzgegeTzPXW
szWk02BzPxAf0r/7OESbB0gY5zXf0iqVCQUAltlKnZ1Ep1J2yqb3TUQlw1GzCpa/
mBJ0JIGgKY7w8emglFMMwiaYs+bcmH2wNxjnE53PG7VX6zIroTFT2kHh6pXs6PXW
E/WfQPY1VOdUJ0QajIEz/tQjKLDfEqV+sBzBNsbp6wASNvuq4/UitEMMTClSsn5i
ame9U34Q1Pg7zcx74qHI3CTy4qBt1mw6DJJDWi0nb9UHTu896rYxgpkIzoWrNZ23
8CWrbnBkYrVStyTAFj+beTVVeYP2XK3hVBioaipeBnnfMDkhhGana9ADgD1qh9tL
anyxoTs3fTbgMwjVamGmd3ixgVXfJhYMYuzx9GD/toUeImjLdEODUonPjBOrHfLC
cqM0/WabPoZlBj1z7JkBsfAVfYqw
-----END CERTIFICATE-----
