Certificate:
    Data:
        Version: 1 (0x0)
        Serial Number: 0 (0x0)
    Signature Algorithm: sha256WithRSAEncryption
        Issuer: C=CT, ST=Barcelona, L=Bellaterra, O=PaySense, OU=ACA, CN=ACA/emailAddress=aca@deic.uab.cat
        Validity
            Not Before: Nov 23 15:48:36 2015 GMT
            Not After : Nov 22 15:48:36 2016 GMT
        Subject: C=CT, ST=Barcelona, L=Bellaterra, O=UAB, OU=DEIC, CN=mfkFmXb3MxdEEFgmx6ZqXTsZkyuexQpSR3
        Subject Public Key Info:
            Public Key Algorithm: id-ecPublicKey
                Public-Key: (256 bit)
                pub: 
                    04:fb:a0:b1:0b:0c:5e:ec:d2:85:55:01:8a:f2:0b:
                    af:a8:ea:7f:c4:3b:a7:2f:64:f2:7d:f6:18:2b:cc:
                    78:74:76:94:04:a3:eb:a6:81:8a:e6:d7:24:6a:85:
                    79:5b:00:e5:80:79:0e:a8:f3:53:2f:29:f0:53:a3:
                    ee:cd:d0:9e:0b
                ASN1 OID: secp256k1
    Signature Algorithm: sha256WithRSAEncryption
         2d:8f:60:54:65:2d:86:6d:de:27:bc:3b:c1:3c:3a:a7:c5:69:
         eb:e5:4e:6b:99:8a:7d:df:52:6e:54:5a:f3:e4:b4:f5:36:ac:
         dd:10:44:b9:16:49:44:63:9b:1c:7e:8c:08:c3:0f:77:a9:1a:
         35:8c:6b:99:66:c1:2c:4d:5d:03:a2:a2:4b:a0:d4:db:ff:5d:
         bc:a3:b8:ae:09:a0:0c:69:14:d5:27:0f:f1:b3:5c:74:61:be:
         7e:b0:74:67:d7:fc:4c:ac:79:31:df:df:fc:43:9e:cc:30:fd:
         8c:84:2f:4f:fd:12:f7:c7:c2:d8:3a:d2:be:b2:a9:af:4f:0b:
         17:10:b1:5d:5e:e8:f1:c5:b2:91:fd:81:8d:dd:49:54:76:4b:
         48:e4:f8:74:7a:95:a4:b3:17:57:46:e2:cd:e0:ff:cf:aa:2d:
         0a:4e:dd:84:60:9b:6b:75:af:5a:96:5c:48:9f:9a:5b:dd:4b:
         eb:12:19:38:ca:ca:c8:0b:a2:44:94:80:d5:08:f5:e6:68:67:
         cd:a9:cf:c1:05:6e:5f:24:a4:dd:f1:d2:b6:18:ad:44:4e:40:
         16:38:66:32:9a:43:07:20:cb:6b:52:a0:48:3c:b4:13:bc:66:
         55:65:7a:90:8a:af:e4:55:11:0c:12:90:84:d1:fb:e0:27:ae:
         1e:c7:0c:0d:04:1b:c9:26:3d:f1:1e:3c:2f:e3:d8:06:3c:65:
         ee:e8:bc:f3:73:0d:05:fc:14:21:76:62:79:09:ab:e3:7f:1a:
         2d:55:bf:14:a1:c8:ed:03:63:f0:9f:67:ad:b7:67:98:c8:23:
         5f:9e:a8:d8:53:a1:0a:c0:44:6a:ff:cf:d1:25:e7:77:df:aa:
         01:cd:06:5a:95:7a:5d:d2:83:26:06:2a:2a:7f:7a:9b:56:e6:
         2d:75:56:7f:0b:67:d8:3a:2b:5e:f2:f0:ed:bc:e2:61:e6:13:
         53:47:75:75:95:fc:2c:64:f3:82:92:47:86:dc:8a:9d:bb:47:
         c1:45:f8:c2:3f:63:1d:42:bd:ee:3b:79:35:22:aa:a2:e9:77:
         2e:98:17:6e:d0:43:37:05:c7:e6:7a:3e:c7:3c:06:1e:01:44:
         71:33:ac:8c:37:d5:65:64:4d:5f:c1:ec:41:c9:b8:79:97:e1:
         8f:e0:ff:52:09:13:89:bc:6e:14:d2:73:ca:27:2f:f0:8b:24:
         a8:69:99:02:6c:38:60:db:4c:a0:5a:1c:b8:86:e1:6c:a6:b1:
         9c:7f:cd:a1:3e:a6:68:31:90:9c:c8:de:a8:e6:8d:30:72:1a:
         ad:36:02:29:94:d6:9b:7d:8f:fc:68:6b:ff:9b:91:23:dc:56:
         36:35:6e:0c:6c:ee:4c:86
-----BEGIN CERTIFICATE-----
MIIDrjCCAZYCAQAwDQYJKoZIhvcNAQELBQAwgYYxCzAJBgNVBAYTAkNUMRIwEAYD
VQQIDAlCYXJjZWxvbmExEzARBgNVBAcMCkJlbGxhdGVycmExETAPBgNVBAoMCFBh
eVNlbnNlMQwwCgYDVQQLDANBQ0ExDDAKBgNVBAMMA0FDQTEfMB0GCSqGSIb3DQEJ
ARYQYWNhQGRlaWMudWFiLmNhdDAeFw0xNTExMjMxNTQ4MzZaFw0xNjExMjIxNTQ4
MzZaMIGAMQswCQYDVQQGEwJDVDESMBAGA1UECAwJQmFyY2Vsb25hMRMwEQYDVQQH
DApCZWxsYXRlcnJhMQwwCgYDVQQKDANVQUIxDTALBgNVBAsMBERFSUMxKzApBgNV
BAMMIm1ma0ZtWGIzTXhkRUVGZ214NlpxWFRzWmt5dWV4UXBTUjMwVjAQBgcqhkjO
PQIBBgUrgQQACgNCAAT7oLELDF7s0oVVAYryC6+o6n/EO6cvZPJ99hgrzHh0dpQE
o+umgYrm1yRqhXlbAOWAeQ6o81MvKfBTo+7N0J4LMA0GCSqGSIb3DQEBCwUAA4IC
AQAtj2BUZS2Gbd4nvDvBPDqnxWnr5U5rmYp931JuVFrz5LT1NqzdEES5FklEY5sc
fowIww93qRo1jGuZZsEsTV0DoqJLoNTb/128o7iuCaAMaRTVJw/xs1x0Yb5+sHRn
1/xMrHkx39/8Q57MMP2MhC9P/RL3x8LYOtK+sqmvTwsXELFdXujxxbKR/YGN3UlU
dktI5Ph0epWksxdXRuLN4P/Pqi0KTt2EYJtrda9allxIn5pb3UvrEhk4ysrIC6JE
lIDVCPXmaGfNqc/BBW5fJKTd8dK2GK1ETkAWOGYymkMHIMtrUqBIPLQTvGZVZXqQ
iq/kVREMEpCE0fvgJ64exwwNBBvJJj3xHjwv49gGPGXu6Lzzcw0F/BQhdmJ5Cavj
fxotVb8UocjtA2Pwn2ett2eYyCNfnqjYU6EKwERq/8/RJed336oBzQZalXpd0oMm
Bioqf3qbVuYtdVZ/C2fYOite8vDtvOJh5hNTR3V1lfwsZPOCkkeG3Iqdu0fBRfjC
P2MdQr3uO3k1Iqqi6XcumBdu0EM3Bcfmej7HPAYeAURxM6yMN9VlZE1fwexBybh5
l+GP4P9SCROJvG4U0nPKJy/wiySoaZkCbDhg20ygWhy4huFsprGcf82hPqZoMZCc
yN6o5o0wchqtNgIplNabfY/8aGv/m5Ej3FY2NW4MbO5Mhg==
-----END CERTIFICATE-----
