Certificate:
    Data:
        Version: 1 (0x0)
        Serial Number: 0 (0x0)
    Signature Algorithm: sha256WithRSAEncryption
        Issuer: C=CT, ST=Barcelona, L=Bellaterra, O=PaySense, OU=ACA, CN=ACA/emailAddress=aca@deic.uab.cat
        Validity
            Not Before: Nov 18 14:37:04 2015 GMT
            Not After : Nov 17 14:37:04 2016 GMT
        Subject: C=CT, ST=Barcelona, L=Bellaterra, O=UAB, OU=DEIC, CN=mgGaUV7c94RPH5XrB9GsNyKZ3KZjobWNbm
        Subject Public Key Info:
            Public Key Algorithm: id-ecPublicKey
                Public-Key: (256 bit)
                pub: 
                    04:65:37:1b:6b:38:c4:30:93:9b:cf:44:db:eb:b3:
                    12:32:15:65:b0:c6:c8:c0:d4:cd:7a:16:0a:88:f1:
                    17:96:61:98:31:73:20:2d:32:3d:ce:fb:61:a8:d4:
                    26:24:7b:a0:53:cc:85:8b:d1:29:6d:f5:5e:77:ec:
                    07:c3:42:10:8f
                ASN1 OID: secp256k1
    Signature Algorithm: sha256WithRSAEncryption
         5e:da:b5:f3:ea:3f:54:ba:5e:03:19:58:8e:06:c8:5e:ae:08:
         9c:ca:30:64:a6:1f:c9:48:cd:eb:e1:12:a9:4b:98:a1:e8:df:
         7f:79:ac:0d:19:2b:79:8a:d0:ec:ba:c3:ce:36:01:18:22:ab:
         ff:ba:0a:33:ba:43:3f:97:cb:24:5f:a1:09:f0:28:83:74:9d:
         3e:d7:30:22:4c:63:d2:12:38:e3:9d:07:14:07:21:47:ba:e0:
         ac:41:48:3b:ff:b4:ad:b5:9e:04:af:d8:fe:44:0f:60:6a:78:
         3b:1b:0f:c1:dc:81:8f:30:30:3a:cc:b6:91:4f:ed:c9:16:b3:
         78:98:ad:75:7f:ad:24:28:89:ca:64:c7:a5:ff:c0:88:3c:86:
         5c:eb:1e:96:fc:08:e7:5e:8a:d8:19:7f:79:4b:a2:f5:a0:18:
         0c:bb:65:b6:12:10:df:76:a7:2d:1a:bf:7c:36:9f:4f:33:ad:
         e4:42:37:31:59:68:71:72:e9:55:56:97:e5:f5:b2:65:98:86:
         ef:2d:b7:76:a0:e5:a5:e7:34:0a:c0:4b:75:01:88:fb:26:5f:
         dd:6e:d5:e3:c6:ce:9d:00:11:70:9a:0a:1e:dd:fc:12:be:6c:
         71:f2:0d:93:37:ca:8d:db:e7:6d:2f:8b:40:00:bb:a1:f3:f2:
         fc:64:24:1a:8d:fb:46:02:36:1f:bc:d2:bc:60:ad:df:30:24:
         39:9a:d2:03:93:cf:0d:a4:37:be:bc:e0:d2:29:20:66:1b:c3:
         05:f9:c5:d8:db:d6:98:b7:b2:ee:ab:18:4d:9e:31:39:86:94:
         3e:6e:0c:67:9f:1a:a0:98:31:7b:f0:d1:8f:f9:1d:83:9e:97:
         90:0b:4b:08:42:22:80:56:58:d3:80:f7:55:e6:dc:51:7a:9a:
         cf:29:36:ab:d5:79:6b:bb:a8:ee:25:3a:cd:7b:5d:09:6d:17:
         d8:54:da:2c:3f:db:0a:ff:ab:e4:91:3a:48:82:0e:45:19:bf:
         67:04:74:35:26:91:07:35:57:01:a9:af:27:1c:53:34:f6:13:
         06:f5:48:45:10:f3:73:56:e3:27:42:5f:f9:5f:d3:9d:43:85:
         67:c8:cd:ab:99:c6:ca:a5:ac:92:72:aa:04:29:f4:00:8f:1c:
         2d:d3:29:b2:1f:e5:b0:b8:c8:ca:2a:ad:a9:24:53:07:a5:c7:
         62:b0:d9:fc:5e:02:9d:60:8f:48:fb:21:d6:f6:a5:27:3c:ad:
         bf:4a:74:44:30:7d:4c:f5:ad:8a:b0:e5:5f:fe:8f:3c:2e:b7:
         95:00:10:5f:89:44:14:96:f1:f1:37:c5:0d:9b:cf:03:2f:a2:
         20:ef:aa:6a:f7:68:a4:2f
-----BEGIN CERTIFICATE-----
MIIDrjCCAZYCAQAwDQYJKoZIhvcNAQELBQAwgYYxCzAJBgNVBAYTAkNUMRIwEAYD
VQQIDAlCYXJjZWxvbmExEzARBgNVBAcMCkJlbGxhdGVycmExETAPBgNVBAoMCFBh
eVNlbnNlMQwwCgYDVQQLDANBQ0ExDDAKBgNVBAMMA0FDQTEfMB0GCSqGSIb3DQEJ
ARYQYWNhQGRlaWMudWFiLmNhdDAeFw0xNTExMTgxNDM3MDRaFw0xNjExMTcxNDM3
MDRaMIGAMQswCQYDVQQGEwJDVDESMBAGA1UECAwJQmFyY2Vsb25hMRMwEQYDVQQH
DApCZWxsYXRlcnJhMQwwCgYDVQQKDANVQUIxDTALBgNVBAsMBERFSUMxKzApBgNV
BAMMIm1nR2FVVjdjOTRSUEg1WHJCOUdzTnlLWjNLWmpvYldOYm0wVjAQBgcqhkjO
PQIBBgUrgQQACgNCAARlNxtrOMQwk5vPRNvrsxIyFWWwxsjA1M16FgqI8ReWYZgx
cyAtMj3O+2Go1CYke6BTzIWL0Slt9V537AfDQhCPMA0GCSqGSIb3DQEBCwUAA4IC
AQBe2rXz6j9Uul4DGViOBshergicyjBkph/JSM3r4RKpS5ih6N9/eawNGSt5itDs
usPONgEYIqv/ugozukM/l8skX6EJ8CiDdJ0+1zAiTGPSEjjjnQcUByFHuuCsQUg7
/7SttZ4Er9j+RA9gang7Gw/B3IGPMDA6zLaRT+3JFrN4mK11f60kKInKZMel/8CI
PIZc6x6W/AjnXorYGX95S6L1oBgMu2W2EhDfdqctGr98Np9PM63kQjcxWWhxculV
Vpfl9bJlmIbvLbd2oOWl5zQKwEt1AYj7Jl/dbtXjxs6dABFwmgoe3fwSvmxx8g2T
N8qN2+dtL4tAALuh8/L8ZCQajftGAjYfvNK8YK3fMCQ5mtIDk88NpDe+vODSKSBm
G8MF+cXY29aYt7LuqxhNnjE5hpQ+bgxnnxqgmDF78NGP+R2DnpeQC0sIQiKAVljT
gPdV5txReprPKTar1Xlru6juJTrNe10JbRfYVNosP9sK/6vkkTpIgg5FGb9nBHQ1
JpEHNVcBqa8nHFM09hMG9UhFEPNzVuMnQl/5X9OdQ4VnyM2rmcbKpayScqoEKfQA
jxwt0ymyH+WwuMjKKq2pJFMHpcdisNn8XgKdYI9I+yHW9qUnPK2/SnREMH1M9a2K
sOVf/o88LreVABBfiUQUlvHxN8UNm88DL6Ig76pq92ikLw==
-----END CERTIFICATE-----
