Certificate:
    Data:
        Version: 1 (0x0)
        Serial Number: 0 (0x0)
    Signature Algorithm: sha256WithRSAEncryption
        Issuer: C=CT, ST=Barcelona, L=Bellaterra, O=PaySense, OU=ACA, CN=ACA/emailAddress=aca@deic.uab.cat
        Validity
            Not Before: Nov 18 10:52:30 2015 GMT
            Not After : Nov 17 10:52:30 2016 GMT
        Subject: C=CT, ST=Barcelona, L=Bellaterra, O=UAB, OU=DEIC, CN=mggkyV56bGXY94zfBcpqj4ozLFbQmXj2qt
        Subject Public Key Info:
            Public Key Algorithm: id-ecPublicKey
                Public-Key: (256 bit)
                pub: 
                    04:48:d9:84:c7:81:c1:82:e9:c7:0a:ae:ad:e4:64:
                    c5:ad:89:d5:a0:e7:cc:89:42:19:67:1e:90:8e:a9:
                    a7:19:e7:24:5e:c1:83:4e:29:9e:6c:92:2a:0b:48:
                    2c:a9:64:a6:c4:1d:84:3c:1f:ab:3d:78:e7:ce:9d:
                    14:a1:e5:0f:c4
                ASN1 OID: secp256k1
    Signature Algorithm: sha256WithRSAEncryption
         3a:70:76:8d:8d:41:7f:15:2d:fa:87:be:9b:af:89:79:48:48:
         4d:6b:d0:d8:e2:53:3a:e4:7b:1e:b1:7b:21:67:35:28:35:eb:
         9b:60:50:10:90:49:0e:fd:80:25:e8:35:15:a5:10:9f:97:d8:
         ef:fd:8c:3c:b4:3b:5d:66:7a:ac:29:c9:4c:38:7a:d2:72:2f:
         f9:e2:41:4f:05:20:f2:71:70:aa:8e:24:4c:e6:22:b6:3b:25:
         59:cc:eb:aa:af:e6:9b:d6:39:b1:d2:01:fa:94:9c:0b:c5:85:
         df:0c:3d:6b:ac:be:91:9b:34:28:47:34:4e:da:66:31:8e:5d:
         95:24:da:9f:b2:6e:96:d9:3a:44:ae:2f:ec:06:1f:9d:11:75:
         c9:52:4c:8c:f2:87:d4:6e:0f:c1:d0:0e:f7:6c:1f:0c:0e:fc:
         8e:83:98:ab:52:3f:2d:68:20:de:f4:51:44:df:dd:8a:89:43:
         2e:d6:2a:18:53:1f:7d:df:d8:84:77:db:5e:f6:a4:88:91:b1:
         ac:f6:df:bb:d1:d0:1e:8a:a1:4a:d4:6b:66:44:de:8e:bb:f0:
         41:09:0c:9a:45:ad:ff:93:4a:15:62:6a:5d:8e:f8:ff:42:c3:
         2e:72:90:07:4b:85:38:80:fa:7f:f2:23:a8:09:a5:8e:47:cf:
         dd:55:73:a3:e9:82:2c:27:54:5f:fb:de:21:ca:af:8d:4a:04:
         d0:ea:b6:cc:42:c0:fe:b4:75:f1:69:d8:85:cf:41:a7:56:38:
         54:b2:80:99:bd:44:bd:0b:16:4f:d0:b3:9c:2d:8c:c2:d9:6b:
         96:93:cf:5a:6d:a6:ec:4e:00:2b:e3:9f:a6:35:66:02:79:52:
         ac:a4:89:8c:dd:52:5b:49:e8:31:88:90:57:5a:a4:d2:06:c8:
         3a:4e:ab:c4:8e:a3:8b:ab:a3:f9:e9:cf:32:c7:cb:97:9d:8b:
         d7:8c:77:74:c8:68:c3:1a:16:9d:0b:cf:bf:47:8c:6c:0e:b7:
         3f:ad:5f:66:b8:df:b9:70:61:35:be:c9:b5:5f:db:f4:0f:ef:
         c5:50:96:50:3c:3f:30:03:8c:50:6f:bd:dd:24:af:a4:90:6a:
         63:64:44:bc:19:70:39:5a:a3:c0:2e:5c:a6:f2:b8:97:67:12:
         17:80:5e:86:60:cd:b5:97:9a:99:23:1b:69:ac:7a:5f:a3:17:
         6a:86:99:b5:8b:92:2b:01:31:24:af:ec:fd:25:2c:f2:8a:66:
         02:7a:ca:00:69:ef:94:61:1a:40:d6:a3:a6:af:42:f1:e8:d7:
         5e:f2:28:31:80:ef:8b:2c:a0:70:f1:fd:05:b4:cd:0b:a5:f3:
         8c:a3:e8:ed:57:20:2e:99
-----BEGIN CERTIFICATE-----
MIIDrjCCAZYCAQAwDQYJKoZIhvcNAQELBQAwgYYxCzAJBgNVBAYTAkNUMRIwEAYD
VQQIDAlCYXJjZWxvbmExEzARBgNVBAcMCkJlbGxhdGVycmExETAPBgNVBAoMCFBh
eVNlbnNlMQwwCgYDVQQLDANBQ0ExDDAKBgNVBAMMA0FDQTEfMB0GCSqGSIb3DQEJ
ARYQYWNhQGRlaWMudWFiLmNhdDAeFw0xNTExMTgxMDUyMzBaFw0xNjExMTcxMDUy
MzBaMIGAMQswCQYDVQQGEwJDVDESMBAGA1UECAwJQmFyY2Vsb25hMRMwEQYDVQQH
DApCZWxsYXRlcnJhMQwwCgYDVQQKDANVQUIxDTALBgNVBAsMBERFSUMxKzApBgNV
BAMMIm1nZ2t5VjU2YkdYWTk0emZCY3BxajRvekxGYlFtWGoycXQwVjAQBgcqhkjO
PQIBBgUrgQQACgNCAARI2YTHgcGC6ccKrq3kZMWtidWg58yJQhlnHpCOqacZ5yRe
wYNOKZ5skioLSCypZKbEHYQ8H6s9eOfOnRSh5Q/EMA0GCSqGSIb3DQEBCwUAA4IC
AQA6cHaNjUF/FS36h76br4l5SEhNa9DY4lM65HsesXshZzUoNeubYFAQkEkO/YAl
6DUVpRCfl9jv/Yw8tDtdZnqsKclMOHrSci/54kFPBSDycXCqjiRM5iK2OyVZzOuq
r+ab1jmx0gH6lJwLxYXfDD1rrL6RmzQoRzRO2mYxjl2VJNqfsm6W2TpEri/sBh+d
EXXJUkyM8ofUbg/B0A73bB8MDvyOg5irUj8taCDe9FFE392KiUMu1ioYUx9939iE
d9te9qSIkbGs9t+70dAeiqFK1GtmRN6Ou/BBCQyaRa3/k0oVYmpdjvj/QsMucpAH
S4U4gPp/8iOoCaWOR8/dVXOj6YIsJ1Rf+94hyq+NSgTQ6rbMQsD+tHXxadiFz0Gn
VjhUsoCZvUS9CxZP0LOcLYzC2WuWk89ababsTgAr45+mNWYCeVKspImM3VJbSegx
iJBXWqTSBsg6TqvEjqOLq6P56c8yx8uXnYvXjHd0yGjDGhadC8+/R4xsDrc/rV9m
uN+5cGE1vsm1X9v0D+/FUJZQPD8wA4xQb73dJK+kkGpjZES8GXA5WqPALlym8riX
ZxIXgF6GYM21l5qZIxtprHpfoxdqhpm1i5IrATEkr+z9JSzyimYCesoAae+UYRpA
1qOmr0Lx6Nde8igxgO+LLKBw8f0FtM0LpfOMo+jtVyAumQ==
-----END CERTIFICATE-----
