Certificate:
    Data:
        Version: 1 (0x0)
        Serial Number: 0 (0x0)
    Signature Algorithm: sha256WithRSAEncryption
        Issuer: C=CT, ST=Barcelona, L=Bellaterra, O=PaySense, OU=ACA, CN=ACA/emailAddress=aca@deic.uab.cat
        Validity
            Not Before: Jul  8 09:25:50 2015 GMT
            Not After : Jul  7 09:25:50 2016 GMT
        Subject: C=CA, ST=Barcelona, L=Bellaterra, O=UAB, OU=DEIC, CN=DCS/emailAddress=dcs@deic.uab.cat
        Subject Public Key Info:
            Public Key Algorithm: id-ecPublicKey
                Public-Key: (256 bit)
                pub: 
                    04:38:06:f9:d9:ee:0a:38:30:43:b0:a1:40:fe:01:
                    c6:58:26:0b:bc:be:57:53:5d:e9:1e:b4:7b:86:aa:
                    4e:c9:ac:ed:9a:0e:1d:42:9f:2d:3d:6e:47:ac:26:
                    7a:67:d0:88:14:98:b1:09:69:00:53:ac:d2:32:7e:
                    94:49:16:ea:68
                ASN1 OID: secp256k1
    Signature Algorithm: sha256WithRSAEncryption
         62:cd:da:72:b1:54:f6:92:ca:c1:46:87:1d:c4:b8:2b:eb:41:
         1b:46:1f:fa:51:20:f9:eb:98:92:f5:d8:0c:a6:da:71:ca:eb:
         c1:0c:ba:d6:13:87:6f:cc:20:9b:60:f3:28:78:ef:32:50:05:
         d9:a0:83:05:45:5a:f5:6c:c1:84:0f:c6:65:0c:8a:25:f7:36:
         6f:b0:82:82:20:b6:f5:69:96:7e:a8:6b:12:43:3b:2e:65:98:
         20:ca:73:57:19:ec:f9:f1:a1:05:90:b2:60:86:12:5f:d6:5c:
         35:ef:0b:0a:ce:21:e7:d2:ae:8d:a9:58:c8:4a:f3:06:9e:df:
         f8:e6:79:e1:5d:8b:24:a2:da:a3:1d:18:6d:09:c7:15:71:8b:
         ee:81:68:6d:69:ee:2f:d7:42:c3:7a:e5:be:61:bb:ee:b7:95:
         0e:cf:90:9f:e5:26:8e:34:98:9c:20:4a:d0:07:8f:31:63:8c:
         8f:ce:1c:66:59:01:af:ff:5d:e4:3b:94:63:df:f6:27:f8:73:
         ff:a2:4e:82:53:ca:70:c1:89:60:d0:c7:93:25:77:56:ee:05:
         50:e8:ac:27:d6:52:2e:fb:5d:0a:24:a8:4c:ee:09:65:72:0e:
         c3:65:dc:51:da:07:8b:d0:d0:56:62:0b:5b:88:cf:cd:27:3d:
         e5:d8:3e:0e:92:b2:7c:03:33:69:42:1c:32:6d:fb:d9:a6:14:
         76:9d:36:16:be:cc:12:61:4f:9c:83:c8:ab:1f:b3:41:8e:d8:
         92:fb:04:b1:0d:7b:d3:6e:f2:f3:3e:a9:86:6e:44:45:97:bf:
         ff:43:3e:a0:2d:b5:9c:92:08:55:fa:2b:4d:47:1a:a5:df:57:
         98:6a:bf:05:94:d0:fd:d6:18:52:1e:34:8c:6e:25:09:b9:9f:
         73:a2:25:6a:07:4b:10:cc:2f:c1:9f:97:89:55:ef:82:c7:0b:
         28:75:5b:e3:76:88:fd:c5:42:fe:f4:13:e8:1f:b8:06:1e:7e:
         8c:db:82:8b:7b:86:44:50:ec:63:8b:7f:f2:3e:55:61:dd:7d:
         2c:4c:c7:38:cb:30:62:87:48:3c:87:ad:7b:d6:e6:11:cb:9e:
         83:ab:b5:c2:1d:4a:f6:63:1d:13:a6:bb:db:a7:5f:e8:08:36:
         ee:e7:08:35:9a:57:48:21:77:60:96:1c:71:8d:dd:89:cb:79:
         b1:c2:e6:7c:8a:62:1f:a0:dd:53:4e:6d:bb:e8:6f:35:2f:f1:
         46:fa:ca:d5:00:e0:ca:67:63:31:3d:a8:29:f0:f1:6d:21:84:
         8e:3d:b2:2e:6f:58:08:65:eb:6a:24:2f:f8:9a:7e:3d:b3:48:
         f9:f0:41:57:04:51:69:95
-----BEGIN CERTIFICATE-----
MIIDsDCCAZgCAQAwDQYJKoZIhvcNAQELBQAwgYYxCzAJBgNVBAYTAkNUMRIwEAYD
VQQIDAlCYXJjZWxvbmExEzARBgNVBAcMCkJlbGxhdGVycmExETAPBgNVBAoMCFBh
eVNlbnNlMQwwCgYDVQQLDANBQ0ExDDAKBgNVBAMMA0FDQTEfMB0GCSqGSIb3DQEJ
ARYQYWNhQGRlaWMudWFiLmNhdDAeFw0xNTA3MDgwOTI1NTBaFw0xNjA3MDcwOTI1
NTBaMIGCMQswCQYDVQQGEwJDQTESMBAGA1UECAwJQmFyY2Vsb25hMRMwEQYDVQQH
DApCZWxsYXRlcnJhMQwwCgYDVQQKDANVQUIxDTALBgNVBAsMBERFSUMxDDAKBgNV
BAMMA0RDUzEfMB0GCSqGSIb3DQEJARYQZGNzQGRlaWMudWFiLmNhdDBWMBAGByqG
SM49AgEGBSuBBAAKA0IABDgG+dnuCjgwQ7ChQP4BxlgmC7y+V1Nd6R60e4aqTsms
7ZoOHUKfLT1uR6wmemfQiBSYsQlpAFOs0jJ+lEkW6mgwDQYJKoZIhvcNAQELBQAD
ggIBAGLN2nKxVPaSysFGhx3EuCvrQRtGH/pRIPnrmJL12Aym2nHK68EMutYTh2/M
IJtg8yh47zJQBdmggwVFWvVswYQPxmUMiiX3Nm+wgoIgtvVpln6oaxJDOy5lmCDK
c1cZ7PnxoQWQsmCGEl/WXDXvCwrOIefSro2pWMhK8wae3/jmeeFdiySi2qMdGG0J
xxVxi+6BaG1p7i/XQsN65b5hu+63lQ7PkJ/lJo40mJwgStAHjzFjjI/OHGZZAa//
XeQ7lGPf9if4c/+iToJTynDBiWDQx5Mld1buBVDorCfWUi77XQokqEzuCWVyDsNl
3FHaB4vQ0FZiC1uIz80nPeXYPg6SsnwDM2lCHDJt+9mmFHadNha+zBJhT5yDyKsf
s0GO2JL7BLENe9Nu8vM+qYZuREWXv/9DPqAttZySCFX6K01HGqXfV5hqvwWU0P3W
GFIeNIxuJQm5n3OiJWoHSxDML8Gfl4lV74LHCyh1W+N2iP3FQv70E+gfuAYefozb
got7hkRQ7GOLf/I+VWHdfSxMxzjLMGKHSDyHrXvW5hHLnoOrtcIdSvZjHROmu9un
X+gINu7nCDWaV0ghd2CWHHGN3YnLebHC5nyKYh+g3VNObbvobzUv8Ub6ytUA4Mpn
YzE9qCnw8W0hhI49si5vWAhl62okL/iafj2zSPnwQVcEUWmV
-----END CERTIFICATE-----
