Certificate:
    Data:
        Version: 1 (0x0)
        Serial Number: 0 (0x0)
    Signature Algorithm: sha256WithRSAEncryption
        Issuer: C=CT, ST=Barcelona, L=Bellaterra, O=PaySense, OU=ACA, CN=ACA/emailAddress=aca@deic.uab.cat
        Validity
            Not Before: Nov 23 15:48:36 2015 GMT
            Not After : Nov 22 15:48:36 2016 GMT
        Subject: C=CT, ST=Barcelona, L=Bellaterra, O=UAB, OU=DEIC, CN=mmXMmWW3QNEswcqFfjEamdt7aAeph9s5LT
        Subject Public Key Info:
            Public Key Algorithm: id-ecPublicKey
                Public-Key: (256 bit)
                pub: 
                    04:e2:0d:78:47:51:78:50:11:6e:9c:4f:0b:b3:bb:
                    ba:16:e3:b0:5b:7b:a3:12:be:d3:ee:5b:12:e9:c5:
                    b5:1e:dc:b3:82:9f:92:a4:81:9d:e0:0e:0c:9c:ce:
                    e8:fb:86:4c:a8:21:55:59:b6:64:10:07:fb:ca:b8:
                    35:3b:14:97:a4
                ASN1 OID: secp256k1
    Signature Algorithm: sha256WithRSAEncryption
         2c:71:f5:18:f7:45:77:df:57:20:51:70:3b:33:a4:32:79:5c:
         b2:25:68:24:4d:af:50:7f:63:62:50:76:3e:43:dd:22:03:87:
         b4:9d:e9:3a:1b:8f:1b:d5:7a:75:69:cf:27:19:e7:44:96:44:
         9d:ee:c6:be:5e:97:cd:c0:dc:71:6a:85:2a:56:5c:8e:01:ab:
         e0:56:37:44:3b:6f:df:cb:42:6e:b3:2a:43:a4:54:f8:ee:a6:
         c7:1b:c6:50:88:81:2e:30:22:2c:6c:57:54:76:3b:18:58:84:
         16:a4:a9:3a:52:df:f1:e0:4c:94:5e:4e:07:0e:0a:a3:81:70:
         b1:da:ee:fd:ab:6d:3c:7b:6d:c9:d3:a1:63:f4:ed:19:49:be:
         b7:6f:d2:a2:37:a8:a5:c8:01:30:ca:a3:c7:ff:03:5a:0d:fe:
         ba:8d:2b:9c:0b:a0:52:2e:8a:16:24:c8:98:42:e8:3f:7c:fb:
         2c:00:87:f7:51:e2:5d:af:4e:c0:0e:db:02:b1:f4:4f:ff:b2:
         c6:19:3e:fa:fd:2c:ec:c0:9e:ab:05:e3:f2:84:2f:0b:d8:a0:
         ac:e5:4a:5d:06:ab:eb:e4:0e:4c:f5:8e:17:1c:4e:0f:cb:83:
         c2:f3:bd:31:25:95:81:49:ae:3c:9f:63:0b:0e:9a:ac:1f:47:
         b4:0d:05:07:44:cb:09:08:9e:b7:b9:69:60:b6:65:7f:ce:83:
         c0:f2:fe:18:cb:14:1e:08:71:d2:70:54:99:5f:4a:d6:0c:95:
         7f:84:ab:ab:48:f3:99:4e:03:2f:68:7d:94:ef:f8:2e:44:8a:
         d0:24:b9:ce:be:a9:9d:8d:94:a7:19:cd:e2:5b:66:74:3a:5a:
         b7:06:a6:84:5e:87:dc:12:29:f4:b7:dc:32:0b:1a:e0:22:e2:
         fc:63:73:0a:32:a1:51:dd:ea:68:79:d5:db:2e:c4:c1:da:01:
         15:45:53:03:cc:07:08:c9:9b:7a:b0:a4:03:06:67:62:15:c8:
         c8:74:56:58:d9:9a:d8:c0:02:71:0b:71:6f:6d:1a:17:73:94:
         c9:c6:91:5f:db:25:98:0b:fc:74:0c:ce:7b:7a:37:70:98:14:
         5e:f0:03:41:20:a0:e3:29:f2:b7:ed:d2:75:42:48:87:17:6b:
         f5:e4:96:51:0c:08:52:e0:6a:91:8f:fc:e0:70:5d:6c:0a:52:
         2c:d5:b5:da:6f:5d:f0:17:58:b8:8e:33:aa:1d:b4:be:c5:28:
         fc:d5:2d:27:7b:53:d6:73:df:99:88:97:90:ee:42:ad:3d:e2:
         5e:53:b7:a3:38:f9:f2:53:50:b4:49:a6:e3:e1:c8:41:38:59:
         0f:a4:fe:71:61:1b:cf:b9
-----BEGIN CERTIFICATE-----
MIIDrjCCAZYCAQAwDQYJKoZIhvcNAQELBQAwgYYxCzAJBgNVBAYTAkNUMRIwEAYD
VQQIDAlCYXJjZWxvbmExEzARBgNVBAcMCkJlbGxhdGVycmExETAPBgNVBAoMCFBh
eVNlbnNlMQwwCgYDVQQLDANBQ0ExDDAKBgNVBAMMA0FDQTEfMB0GCSqGSIb3DQEJ
ARYQYWNhQGRlaWMudWFiLmNhdDAeFw0xNTExMjMxNTQ4MzZaFw0xNjExMjIxNTQ4
MzZaMIGAMQswCQYDVQQGEwJDVDESMBAGA1UECAwJQmFyY2Vsb25hMRMwEQYDVQQH
DApCZWxsYXRlcnJhMQwwCgYDVQQKDANVQUIxDTALBgNVBAsMBERFSUMxKzApBgNV
BAMMIm1tWE1tV1czUU5Fc3djcUZmakVhbWR0N2FBZXBoOXM1TFQwVjAQBgcqhkjO
PQIBBgUrgQQACgNCAATiDXhHUXhQEW6cTwuzu7oW47Bbe6MSvtPuWxLpxbUe3LOC
n5KkgZ3gDgyczuj7hkyoIVVZtmQQB/vKuDU7FJekMA0GCSqGSIb3DQEBCwUAA4IC
AQAscfUY90V331cgUXA7M6QyeVyyJWgkTa9Qf2NiUHY+Q90iA4e0nek6G48b1Xp1
ac8nGedElkSd7sa+XpfNwNxxaoUqVlyOAavgVjdEO2/fy0JusypDpFT47qbHG8ZQ
iIEuMCIsbFdUdjsYWIQWpKk6Ut/x4EyUXk4HDgqjgXCx2u79q208e23J06Fj9O0Z
Sb63b9KiN6ilyAEwyqPH/wNaDf66jSucC6BSLooWJMiYQug/fPssAIf3UeJdr07A
DtsCsfRP/7LGGT76/SzswJ6rBePyhC8L2KCs5UpdBqvr5A5M9Y4XHE4Py4PC870x
JZWBSa48n2MLDpqsH0e0DQUHRMsJCJ63uWlgtmV/zoPA8v4YyxQeCHHScFSZX0rW
DJV/hKurSPOZTgMvaH2U7/guRIrQJLnOvqmdjZSnGc3iW2Z0Olq3BqaEXofcEin0
t9wyCxrgIuL8Y3MKMqFR3epoedXbLsTB2gEVRVMDzAcIyZt6sKQDBmdiFcjIdFZY
2ZrYwAJxC3FvbRoXc5TJxpFf2yWYC/x0DM57ejdwmBRe8ANBIKDjKfK37dJ1QkiH
F2v15JZRDAhS4GqRj/zgcF1sClIs1bXab13wF1i4jjOqHbS+xSj81S0ne1PWc9+Z
iJeQ7kKtPeJeU7ejOPnyU1C0Sabj4chBOFkPpP5xYRvPuQ==
-----END CERTIFICATE-----
