Certificate:
    Data:
        Version: 1 (0x0)
        Serial Number: 0 (0x0)
    Signature Algorithm: sha256WithRSAEncryption
        Issuer: C=CT, ST=Barcelona, L=Bellaterra, O=PaySense, OU=ACA, CN=ACA/emailAddress=aca@deic.uab.cat
        Validity
            Not Before: Nov 23 15:48:36 2015 GMT
            Not After : Nov 22 15:48:36 2016 GMT
        Subject: C=CT, ST=Barcelona, L=Bellaterra, O=UAB, OU=DEIC, CN=mpAcMMaNJm6fU6kTuCTAd93Pw3Rx7hYZTR
        Subject Public Key Info:
            Public Key Algorithm: id-ecPublicKey
                Public-Key: (256 bit)
                pub: 
                    04:73:e1:d5:40:9d:dd:81:c7:4e:2c:da:28:78:c7:
                    ef:e9:2a:7e:36:e1:e2:fd:60:a1:eb:55:9b:ce:96:
                    f8:05:df:c7:ab:ac:36:06:bc:96:d9:a1:4b:93:4e:
                    ee:25:03:d1:f3:5f:48:57:10:3b:0d:35:74:91:f3:
                    cc:54:fd:a3:3d
                ASN1 OID: secp256k1
    Signature Algorithm: sha256WithRSAEncryption
         6d:8d:0e:a8:f2:8a:e2:59:cf:c9:25:88:71:b7:99:c7:76:36:
         ef:e3:e7:7d:d5:31:49:21:78:0f:c1:be:98:e5:f7:a9:3b:10:
         95:fc:6d:57:72:7f:f1:5c:c1:61:b1:5a:a7:b7:07:8c:f5:32:
         8e:74:9e:90:86:8f:b3:08:40:c6:f9:0e:ac:32:e8:01:55:32:
         41:f2:ad:56:69:82:fc:00:18:34:bc:94:b4:ec:2d:49:44:19:
         1b:4c:20:76:6d:b5:ac:e4:4d:51:45:3b:68:5f:cc:9d:a2:0d:
         21:e5:d3:19:ed:e7:42:49:0c:25:ba:7c:42:78:c8:e0:65:e4:
         67:c9:27:c6:c9:87:83:db:13:cb:2d:79:6f:54:d9:a4:73:f8:
         1e:80:ba:0b:81:81:d8:66:c0:5a:86:16:34:5f:f8:1b:9f:1d:
         6d:67:42:25:f4:34:e1:92:8f:55:06:1e:85:e1:63:2a:bc:a0:
         dc:58:5c:89:16:79:0c:3b:3a:cb:97:c7:ef:92:16:d6:ec:51:
         e1:6b:9d:f5:44:d3:6b:b3:5c:2b:68:5d:e1:1b:c4:43:6f:15:
         e1:37:58:82:eb:91:3f:6c:80:32:05:1b:28:1e:b4:2a:34:cd:
         ad:00:20:ec:ee:b2:44:f6:77:c8:e3:25:c2:8d:12:6a:68:62:
         fb:b4:dd:d4:a7:ad:92:c7:bd:70:45:0b:5a:fd:c5:65:48:1b:
         0a:84:0c:81:7b:03:ee:cc:94:f2:07:02:0b:f5:c0:9b:7d:6b:
         fc:b3:25:8d:4d:d7:90:ca:b4:58:32:15:ea:f1:b9:ab:77:81:
         aa:82:14:34:78:c1:60:c1:4a:37:1f:c7:bf:e4:e2:59:01:b5:
         75:46:bc:3f:f3:44:1e:8b:6c:3f:3a:08:07:76:b3:f0:02:39:
         ec:33:fe:ab:7f:b5:73:ff:50:ba:14:47:37:bb:08:29:f1:46:
         eb:0c:a8:f7:f2:b6:70:1e:2e:e5:2f:43:a7:e0:fb:a9:a6:34:
         32:06:7a:76:fb:97:f9:80:2a:95:0c:d8:23:ef:25:9c:04:8a:
         65:bd:bc:39:f4:2b:ea:c3:77:77:a5:68:c0:cf:ea:5b:3f:3f:
         7b:54:e8:bb:04:6b:21:00:dd:8b:1d:c5:0e:49:74:6a:21:62:
         b9:b9:86:37:15:f6:2f:94:c7:7e:80:50:27:53:a7:77:9d:71:
         21:84:74:89:8b:8a:6b:cb:21:95:db:1e:9a:e4:d8:7f:64:ca:
         34:c1:22:b5:25:16:da:17:cd:6a:0c:f6:a7:02:25:81:b0:bc:
         68:bd:f1:64:a8:c2:a5:51:32:4b:ea:4f:97:85:fa:29:9a:88:
         c6:db:13:63:be:a2:2b:19
-----BEGIN CERTIFICATE-----
MIIDrjCCAZYCAQAwDQYJKoZIhvcNAQELBQAwgYYxCzAJBgNVBAYTAkNUMRIwEAYD
VQQIDAlCYXJjZWxvbmExEzARBgNVBAcMCkJlbGxhdGVycmExETAPBgNVBAoMCFBh
eVNlbnNlMQwwCgYDVQQLDANBQ0ExDDAKBgNVBAMMA0FDQTEfMB0GCSqGSIb3DQEJ
ARYQYWNhQGRlaWMudWFiLmNhdDAeFw0xNTExMjMxNTQ4MzZaFw0xNjExMjIxNTQ4
MzZaMIGAMQswCQYDVQQGEwJDVDESMBAGA1UECAwJQmFyY2Vsb25hMRMwEQYDVQQH
DApCZWxsYXRlcnJhMQwwCgYDVQQKDANVQUIxDTALBgNVBAsMBERFSUMxKzApBgNV
BAMMIm1wQWNNTWFOSm02ZlU2a1R1Q1RBZDkzUHczUng3aFlaVFIwVjAQBgcqhkjO
PQIBBgUrgQQACgNCAARz4dVAnd2Bx04s2ih4x+/pKn424eL9YKHrVZvOlvgF38er
rDYGvJbZoUuTTu4lA9HzX0hXEDsNNXSR88xU/aM9MA0GCSqGSIb3DQEBCwUAA4IC
AQBtjQ6o8oriWc/JJYhxt5nHdjbv4+d91TFJIXgPwb6Y5fepOxCV/G1Xcn/xXMFh
sVqntweM9TKOdJ6Qho+zCEDG+Q6sMugBVTJB8q1WaYL8ABg0vJS07C1JRBkbTCB2
bbWs5E1RRTtoX8ydog0h5dMZ7edCSQwlunxCeMjgZeRnySfGyYeD2xPLLXlvVNmk
c/gegLoLgYHYZsBahhY0X/gbnx1tZ0Il9DThko9VBh6F4WMqvKDcWFyJFnkMOzrL
l8fvkhbW7FHha531RNNrs1wraF3hG8RDbxXhN1iC65E/bIAyBRsoHrQqNM2tACDs
7rJE9nfI4yXCjRJqaGL7tN3Up62Sx71wRQta/cVlSBsKhAyBewPuzJTyBwIL9cCb
fWv8syWNTdeQyrRYMhXq8bmrd4GqghQ0eMFgwUo3H8e/5OJZAbV1Rrw/80Qei2w/
OggHdrPwAjnsM/6rf7Vz/1C6FEc3uwgp8UbrDKj38rZwHi7lL0On4PuppjQyBnp2
+5f5gCqVDNgj7yWcBIplvbw59Cvqw3d3pWjAz+pbPz97VOi7BGshAN2LHcUOSXRq
IWK5uYY3FfYvlMd+gFAnU6d3nXEhhHSJi4pryyGV2x6a5Nh/ZMo0wSK1JRbaF81q
DPanAiWBsLxovfFkqMKlUTJL6k+XhfopmojG2xNjvqIrGQ==
-----END CERTIFICATE-----
