Certificate:
    Data:
        Version: 1 (0x0)
        Serial Number: 0 (0x0)
    Signature Algorithm: sha256WithRSAEncryption
        Issuer: C=CT, ST=Barcelona, L=Bellaterra, O=PaySense, OU=ACA, CN=ACA/emailAddress=aca@deic.uab.cat
        Validity
            Not Before: Jul  8 08:55:42 2015 GMT
            Not After : Jul  7 08:55:42 2016 GMT
        Subject: C=CA, ST=Barcelona, L=Bellaterra, O=UAB, OU=DEIC, CN=mpk8Ez6uNW6nrCfojybYAZwAngKpPY2wW4
        Subject Public Key Info:
            Public Key Algorithm: id-ecPublicKey
                Public-Key: (256 bit)
                pub: 
                    04:48:17:21:5d:2a:64:34:ab:ef:8b:82:87:37:26:
                    5e:62:56:b3:00:41:86:43:46:3b:a5:07:cc:10:88:
                    3a:54:b4:a9:f1:cc:71:22:49:58:b4:75:6b:55:d1:
                    a7:c5:ce:56:71:32:5b:b3:7b:eb:19:9c:ae:a7:65:
                    ba:2c:dc:7b:76
                ASN1 OID: secp256k1
    Signature Algorithm: sha256WithRSAEncryption
         6b:6d:7c:6c:24:54:ee:71:c6:38:cf:b4:e4:8e:11:4d:58:17:
         6a:06:97:4a:a0:16:3b:cb:ca:4b:10:94:d1:18:c9:fa:a4:8c:
         06:7e:2c:b9:24:66:07:b9:a6:e7:e3:32:61:34:47:a9:ec:c5:
         82:0b:4e:e4:9d:e3:e4:ea:7f:76:12:f4:57:b0:df:84:c2:f4:
         4a:bc:aa:f0:df:be:ec:12:11:c6:bb:4e:a2:a5:aa:f1:38:a1:
         06:41:ef:32:24:ba:a0:5d:6f:56:07:08:8c:d3:2c:5b:66:ea:
         b5:79:f0:00:c1:30:88:dc:3d:da:b4:1b:a4:83:62:b7:e9:00:
         f2:ca:1a:61:9a:7e:92:de:1e:b6:f8:53:a7:a4:2e:c7:17:ef:
         7d:16:ab:9f:93:b7:31:b5:51:0d:ab:6a:e5:96:98:0d:a7:5c:
         b7:aa:68:a8:51:71:84:38:17:ca:92:60:e6:b4:b1:b1:67:76:
         a7:e9:b4:4d:2c:90:79:59:3b:ac:1f:66:75:fb:0f:2d:2d:51:
         82:d1:f6:82:97:fb:e8:a3:d2:e8:5d:d5:65:5b:67:ca:29:0f:
         2b:ce:a3:da:cc:32:a9:48:5e:ee:1e:60:db:51:2e:42:ed:74:
         dd:55:cc:15:eb:db:97:24:ee:ff:40:ea:20:a3:37:01:83:95:
         0f:9b:76:69:41:53:ca:17:e8:5a:d8:9b:0a:33:62:37:31:95:
         49:59:e7:e7:b8:90:1d:b1:c5:b3:8b:78:cc:ac:7f:bd:44:a8:
         04:00:0e:0e:b3:0c:c0:7a:df:13:24:4d:09:53:4e:f0:dd:62:
         22:5d:cf:8f:46:b5:9a:12:b5:92:2f:4b:bd:7f:a1:bc:a6:d8:
         3e:63:1f:49:8e:20:6f:59:66:4d:35:53:25:db:07:3f:c5:4e:
         4d:d8:58:a6:66:d7:c8:9a:e0:ec:7e:af:4a:bd:1f:22:cb:e6:
         ff:74:ae:d5:5b:f4:48:48:0b:fd:45:ef:e6:fc:97:90:c6:11:
         cf:74:bd:e1:23:7f:19:f7:f5:49:bd:d4:9b:ce:05:23:8c:ce:
         ce:e0:ec:bf:6a:87:2c:68:cc:9a:45:87:59:68:ab:b9:7d:59:
         b9:6c:e2:35:64:c7:e8:21:f0:96:05:72:92:81:1f:7c:1b:91:
         f2:3e:2a:ba:02:e0:af:0c:51:dc:91:d8:05:60:67:b1:4c:45:
         26:e4:75:2a:09:da:e5:92:4c:b5:19:f9:5e:0a:f2:02:ba:b5:
         4d:cf:23:11:be:57:4d:ff:bb:2c:9f:f0:76:49:bc:2d:0a:1d:
         12:c2:b5:5b:8c:47:ad:66:ea:3f:b7:ce:3c:5a:c2:14:6d:5a:
         80:a8:d4:03:6c:25:58:7e
-----BEGIN CERTIFICATE-----
MIIDrjCCAZYCAQAwDQYJKoZIhvcNAQELBQAwgYYxCzAJBgNVBAYTAkNUMRIwEAYD
VQQIDAlCYXJjZWxvbmExEzARBgNVBAcMCkJlbGxhdGVycmExETAPBgNVBAoMCFBh
eVNlbnNlMQwwCgYDVQQLDANBQ0ExDDAKBgNVBAMMA0FDQTEfMB0GCSqGSIb3DQEJ
ARYQYWNhQGRlaWMudWFiLmNhdDAeFw0xNTA3MDgwODU1NDJaFw0xNjA3MDcwODU1
NDJaMIGAMQswCQYDVQQGEwJDQTESMBAGA1UECAwJQmFyY2Vsb25hMRMwEQYDVQQH
DApCZWxsYXRlcnJhMQwwCgYDVQQKDANVQUIxDTALBgNVBAsMBERFSUMxKzApBgNV
BAMMIm1wazhFejZ1Tlc2bnJDZm9qeWJZQVp3QW5nS3BQWTJ3VzQwVjAQBgcqhkjO
PQIBBgUrgQQACgNCAARIFyFdKmQ0q++Lgoc3Jl5iVrMAQYZDRjulB8wQiDpUtKnx
zHEiSVi0dWtV0afFzlZxMluze+sZnK6nZbos3Ht2MA0GCSqGSIb3DQEBCwUAA4IC
AQBrbXxsJFTuccY4z7TkjhFNWBdqBpdKoBY7y8pLEJTRGMn6pIwGfiy5JGYHuabn
4zJhNEep7MWCC07knePk6n92EvRXsN+EwvRKvKrw377sEhHGu06iparxOKEGQe8y
JLqgXW9WBwiM0yxbZuq1efAAwTCI3D3atBukg2K36QDyyhphmn6S3h62+FOnpC7H
F+99Fqufk7cxtVENq2rllpgNp1y3qmioUXGEOBfKkmDmtLGxZ3an6bRNLJB5WTus
H2Z1+w8tLVGC0faCl/voo9LoXdVlW2fKKQ8rzqPazDKpSF7uHmDbUS5C7XTdVcwV
69uXJO7/QOogozcBg5UPm3ZpQVPKF+ha2JsKM2I3MZVJWefnuJAdscWzi3jMrH+9
RKgEAA4OswzAet8TJE0JU07w3WIiXc+PRrWaErWSL0u9f6G8ptg+Yx9JjiBvWWZN
NVMl2wc/xU5N2FimZtfImuDsfq9KvR8iy+b/dK7VW/RISAv9Re/m/JeQxhHPdL3h
I38Z9/VJvdSbzgUjjM7O4Oy/aocsaMyaRYdZaKu5fVm5bOI1ZMfoIfCWBXKSgR98
G5HyPiq6AuCvDFHckdgFYGexTEUm5HUqCdrlkky1GfleCvICurVNzyMRvldN/7ss
n/B2SbwtCh0SwrVbjEetZuo/t848WsIUbVqAqNQDbCVYfg==
-----END CERTIFICATE-----
