Certificate:
    Data:
        Version: 1 (0x0)
        Serial Number: 0 (0x0)
    Signature Algorithm: sha256WithRSAEncryption
        Issuer: C=CT, ST=Barcelona, L=Bellaterra, O=PaySense, OU=ACA, CN=ACA/emailAddress=aca@deic.uab.cat
        Validity
            Not Before: Jul  8 08:56:06 2015 GMT
            Not After : Jul  7 08:56:06 2016 GMT
        Subject: C=CA, ST=Barcelona, L=Bellaterra, O=UAB, OU=DEIC, CN=mqK7r317PcsffYfQvkxkZu87GKEg56Gu3b
        Subject Public Key Info:
            Public Key Algorithm: id-ecPublicKey
                Public-Key: (256 bit)
                pub: 
                    04:c8:c6:0f:8c:a3:36:17:50:50:f3:16:84:d7:01:
                    39:0c:3e:e8:07:c6:d5:ba:c8:dc:0a:49:a3:48:34:
                    30:29:bf:eb:68:ed:0f:4a:cb:3e:9c:9e:31:e2:f0:
                    ac:dc:41:84:5a:d0:9f:de:ec:10:3f:1b:24:de:40:
                    73:79:c9:02:1b
                ASN1 OID: secp256k1
    Signature Algorithm: sha256WithRSAEncryption
         32:18:63:26:b3:b4:4f:f5:90:0c:9e:05:55:0f:c6:f8:8f:b7:
         e0:e0:3f:35:53:be:18:36:78:9f:0f:46:b4:ee:53:49:e9:2c:
         c4:2d:1f:a8:dd:7b:99:df:90:44:d8:a0:67:c5:01:68:13:ec:
         6d:ba:cf:76:97:b6:4d:70:9a:dd:86:39:8c:3d:1f:e7:32:fe:
         f2:a5:10:b9:ba:3d:cf:06:0a:c9:0b:28:2b:8d:b7:d9:d8:76:
         c5:3e:cd:58:dd:55:41:84:7d:ff:4a:f6:3c:24:26:23:b8:d6:
         6c:1c:25:32:13:11:0a:dd:5a:c4:83:1f:56:5d:1d:5b:50:70:
         5e:51:6a:36:95:48:4e:ec:4d:2b:11:f0:96:26:58:b2:db:9e:
         bf:57:07:2a:e3:11:ed:e5:fc:35:c1:b4:5f:01:a7:53:2e:44:
         51:a7:d3:08:62:37:3d:5f:80:80:5a:fc:04:b8:46:d2:c5:3e:
         04:47:81:81:9c:f8:dc:95:79:a0:a7:81:81:99:f8:9c:5a:5a:
         1d:2c:ec:39:86:21:c0:da:09:84:b0:84:8b:1c:96:9b:eb:40:
         b8:e0:a0:21:23:ce:69:b1:09:4f:29:ae:ea:c3:77:16:d4:cb:
         62:93:b3:12:f7:c8:c2:c9:d6:e7:cb:7c:6c:9a:ed:0c:f8:1e:
         fa:ef:9b:93:2a:d1:82:b0:87:b1:eb:fc:ba:a9:62:bc:68:98:
         2d:69:98:dc:4d:12:a2:3d:d9:00:9a:f9:a8:3d:51:73:0d:a2:
         b5:47:ee:50:b9:e1:a8:1b:ac:24:e5:e4:72:d0:b8:21:bf:44:
         8d:d5:36:c4:91:3d:94:fd:38:b4:e1:8c:0c:9f:fc:62:d7:8d:
         f9:1e:83:3b:23:9c:45:2e:c2:d6:01:cf:4d:c8:a2:c6:eb:23:
         95:b9:9f:52:cc:57:ba:11:ad:9e:68:f5:48:d2:c5:12:1d:b1:
         6b:c1:af:ff:ba:35:8e:77:2e:c5:36:75:84:ea:32:f7:8b:87:
         0c:6e:04:31:f4:bc:1b:c1:ff:eb:77:c5:63:03:c8:9f:98:be:
         fd:6e:6e:62:49:dd:df:d7:9d:be:2f:8e:5f:5c:4d:df:df:92:
         33:d3:3b:d3:de:e7:bd:cd:9e:ab:4e:22:9e:2f:27:fd:d3:0c:
         8d:5e:55:39:e9:e6:db:4c:1c:4b:a5:42:18:7a:88:fe:47:e2:
         c1:0b:d6:7c:d4:9e:63:11:b9:24:51:66:61:cc:24:57:c6:39:
         be:f9:39:f8:0a:7e:a5:56:40:77:e9:4d:9f:6c:1c:5c:9f:eb:
         8d:ca:15:46:1f:fc:94:64:a6:98:cf:b1:16:e3:34:df:58:18:
         91:d9:aa:9d:cc:23:ef:29
-----BEGIN CERTIFICATE-----
MIIDrjCCAZYCAQAwDQYJKoZIhvcNAQELBQAwgYYxCzAJBgNVBAYTAkNUMRIwEAYD
VQQIDAlCYXJjZWxvbmExEzARBgNVBAcMCkJlbGxhdGVycmExETAPBgNVBAoMCFBh
eVNlbnNlMQwwCgYDVQQLDANBQ0ExDDAKBgNVBAMMA0FDQTEfMB0GCSqGSIb3DQEJ
ARYQYWNhQGRlaWMudWFiLmNhdDAeFw0xNTA3MDgwODU2MDZaFw0xNjA3MDcwODU2
MDZaMIGAMQswCQYDVQQGEwJDQTESMBAGA1UECAwJQmFyY2Vsb25hMRMwEQYDVQQH
DApCZWxsYXRlcnJhMQwwCgYDVQQKDANVQUIxDTALBgNVBAsMBERFSUMxKzApBgNV
BAMMIm1xSzdyMzE3UGNzZmZZZlF2a3hrWnU4N0dLRWc1Nkd1M2IwVjAQBgcqhkjO
PQIBBgUrgQQACgNCAATIxg+MozYXUFDzFoTXATkMPugHxtW6yNwKSaNINDApv+to
7Q9Kyz6cnjHi8KzcQYRa0J/e7BA/GyTeQHN5yQIbMA0GCSqGSIb3DQEBCwUAA4IC
AQAyGGMms7RP9ZAMngVVD8b4j7fg4D81U74YNnifD0a07lNJ6SzELR+o3XuZ35BE
2KBnxQFoE+xtus92l7ZNcJrdhjmMPR/nMv7ypRC5uj3PBgrJCygrjbfZ2HbFPs1Y
3VVBhH3/SvY8JCYjuNZsHCUyExEK3VrEgx9WXR1bUHBeUWo2lUhO7E0rEfCWJliy
256/Vwcq4xHt5fw1wbRfAadTLkRRp9MIYjc9X4CAWvwEuEbSxT4ER4GBnPjclXmg
p4GBmficWlodLOw5hiHA2gmEsISLHJab60C44KAhI85psQlPKa7qw3cW1Mtik7MS
98jCydbny3xsmu0M+B7675uTKtGCsIex6/y6qWK8aJgtaZjcTRKiPdkAmvmoPVFz
DaK1R+5QueGoG6wk5eRy0Lghv0SN1TbEkT2U/Ti04YwMn/xi1435HoM7I5xFLsLW
Ac9NyKLG6yOVuZ9SzFe6Ea2eaPVI0sUSHbFrwa//ujWOdy7FNnWE6jL3i4cMbgQx
9Lwbwf/rd8VjA8ifmL79bm5iSd3f152+L45fXE3f35Iz0zvT3ue9zZ6rTiKeLyf9
0wyNXlU56ebbTBxLpUIYeoj+R+LBC9Z81J5jEbkkUWZhzCRXxjm++Tn4Cn6lVkB3
6U2fbBxcn+uNyhVGH/yUZKaYz7EW4zTfWBiR2aqdzCPvKQ==
-----END CERTIFICATE-----
