Certificate:
    Data:
        Version: 1 (0x0)
        Serial Number: 0 (0x0)
    Signature Algorithm: sha256WithRSAEncryption
        Issuer: C=CT, ST=Barcelona, L=Bellaterra, O=PaySense, OU=ACA, CN=ACA/emailAddress=aca@deic.uab.cat
        Validity
            Not Before: Nov 23 15:48:36 2015 GMT
            Not After : Nov 22 15:48:36 2016 GMT
        Subject: C=CT, ST=Barcelona, L=Bellaterra, O=UAB, OU=DEIC, CN=mreWafEkZVPNAvdfRDYYwH4wr7jeMNeCfQ
        Subject Public Key Info:
            Public Key Algorithm: id-ecPublicKey
                Public-Key: (256 bit)
                pub: 
                    04:be:5c:80:0f:6d:3e:ec:12:27:b5:07:09:9a:2c:
                    2a:5a:8a:82:f2:bc:71:d3:67:0f:48:ff:56:de:0c:
                    33:cd:8b:d0:d7:57:51:69:bc:72:eb:ff:da:a1:db:
                    a6:61:74:51:cf:06:f9:f7:ce:42:9c:e0:da:69:3b:
                    99:ed:0f:4b:d6
                ASN1 OID: secp256k1
    Signature Algorithm: sha256WithRSAEncryption
         15:31:dc:8f:0e:98:c9:86:8c:0d:87:f8:39:c3:20:99:65:b7:
         d1:a3:f1:fa:db:11:b2:99:03:9d:d3:82:e4:b7:7f:d5:8c:a6:
         19:71:f2:0a:d8:81:ff:d5:d8:ad:91:70:bc:d4:90:31:5a:64:
         8a:6c:02:89:0d:39:9c:dd:1e:09:32:45:bc:9d:87:42:e2:3e:
         a1:e0:43:18:a7:f6:00:8f:9c:4e:69:e4:6f:e7:d6:61:64:23:
         70:8f:44:a3:49:46:5e:6b:24:f5:72:a8:eb:7b:67:0b:0d:f0:
         27:05:81:78:9c:01:0b:8b:5a:9a:63:bf:c0:54:f9:41:f0:ee:
         37:68:7d:75:90:b8:ae:72:a2:1f:97:5a:42:a9:52:71:4d:ca:
         42:4c:fa:d2:53:18:68:c9:a2:dd:b8:c6:17:eb:79:c5:ca:ec:
         ef:31:5b:53:8b:ba:68:aa:c2:b5:d6:33:98:43:bb:29:17:8d:
         34:53:f7:49:2f:6e:d4:35:76:44:ec:24:15:5c:c8:3d:b6:74:
         56:35:4d:17:48:09:71:c8:76:42:b8:4c:91:8a:28:d9:0e:e1:
         51:d1:b9:25:bd:57:31:1f:52:ea:35:ad:ae:4c:60:98:30:d5:
         17:1a:e3:2e:f7:44:19:48:75:cc:8d:c6:5f:78:f9:aa:68:f9:
         ea:40:46:7e:0a:da:9a:36:55:46:14:5c:8b:3b:ce:93:f5:b0:
         66:de:85:55:6d:b4:18:fb:ec:60:c9:1c:ef:d9:ed:a5:95:1b:
         91:f6:2f:bc:67:58:af:28:f2:c3:ef:f3:77:db:1d:20:d4:42:
         f4:90:f4:db:5d:08:8c:f9:79:8c:cb:f9:64:92:fe:40:d6:2a:
         3b:06:93:b4:03:1b:47:fe:64:b1:3e:40:15:fe:29:8a:91:5e:
         f8:dc:99:c7:9e:4e:eb:6e:ed:5e:26:6e:92:fd:44:32:f4:92:
         4f:02:74:ff:f9:71:9d:5e:01:f4:12:fe:11:f5:87:ab:ba:39:
         4e:8c:82:86:42:1a:e0:c4:77:8c:34:14:13:7f:8d:35:bc:d4:
         62:bc:ff:67:70:c5:3f:3a:0d:ad:3b:a0:8d:8a:6e:f7:2b:8a:
         67:21:9a:c0:6a:4f:17:26:c2:23:55:59:b7:46:de:f5:33:fd:
         18:b9:cf:80:42:a1:89:52:3f:5a:d1:c7:7a:7e:72:4e:9b:08:
         c0:f6:41:90:ab:de:fd:4d:d4:fd:82:f5:f1:77:d8:37:1f:1e:
         96:66:a5:f8:88:55:b3:92:1d:04:67:30:4b:68:1a:15:24:b8:
         49:be:bc:91:4b:18:aa:a3:c5:9f:a3:75:42:e1:f9:d4:6e:77:
         7e:03:73:21:1c:08:a7:5d
-----BEGIN CERTIFICATE-----
MIIDrjCCAZYCAQAwDQYJKoZIhvcNAQELBQAwgYYxCzAJBgNVBAYTAkNUMRIwEAYD
VQQIDAlCYXJjZWxvbmExEzARBgNVBAcMCkJlbGxhdGVycmExETAPBgNVBAoMCFBh
eVNlbnNlMQwwCgYDVQQLDANBQ0ExDDAKBgNVBAMMA0FDQTEfMB0GCSqGSIb3DQEJ
ARYQYWNhQGRlaWMudWFiLmNhdDAeFw0xNTExMjMxNTQ4MzZaFw0xNjExMjIxNTQ4
MzZaMIGAMQswCQYDVQQGEwJDVDESMBAGA1UECAwJQmFyY2Vsb25hMRMwEQYDVQQH
DApCZWxsYXRlcnJhMQwwCgYDVQQKDANVQUIxDTALBgNVBAsMBERFSUMxKzApBgNV
BAMMIm1yZVdhZkVrWlZQTkF2ZGZSRFlZd0g0d3I3amVNTmVDZlEwVjAQBgcqhkjO
PQIBBgUrgQQACgNCAAS+XIAPbT7sEie1BwmaLCpaioLyvHHTZw9I/1beDDPNi9DX
V1FpvHLr/9qh26ZhdFHPBvn3zkKc4NppO5ntD0vWMA0GCSqGSIb3DQEBCwUAA4IC
AQAVMdyPDpjJhowNh/g5wyCZZbfRo/H62xGymQOd04Lkt3/VjKYZcfIK2IH/1dit
kXC81JAxWmSKbAKJDTmc3R4JMkW8nYdC4j6h4EMYp/YAj5xOaeRv59ZhZCNwj0Sj
SUZeayT1cqjre2cLDfAnBYF4nAELi1qaY7/AVPlB8O43aH11kLiucqIfl1pCqVJx
TcpCTPrSUxhoyaLduMYX63nFyuzvMVtTi7poqsK11jOYQ7spF400U/dJL27UNXZE
7CQVXMg9tnRWNU0XSAlxyHZCuEyRiijZDuFR0bklvVcxH1LqNa2uTGCYMNUXGuMu
90QZSHXMjcZfePmqaPnqQEZ+CtqaNlVGFFyLO86T9bBm3oVVbbQY++xgyRzv2e2l
lRuR9i+8Z1ivKPLD7/N32x0g1EL0kPTbXQiM+XmMy/lkkv5A1io7BpO0AxtH/mSx
PkAV/imKkV743JnHnk7rbu1eJm6S/UQy9JJPAnT/+XGdXgH0Ev4R9YerujlOjIKG
QhrgxHeMNBQTf401vNRivP9ncMU/Og2tO6CNim73K4pnIZrAak8XJsIjVVm3Rt71
M/0Yuc+AQqGJUj9a0cd6fnJOmwjA9kGQq979TdT9gvXxd9g3Hx6WZqX4iFWzkh0E
ZzBLaBoVJLhJvryRSxiqo8Wfo3VC4fnUbnd+A3MhHAinXQ==
-----END CERTIFICATE-----
