Certificate:
    Data:
        Version: 1 (0x0)
        Serial Number: 0 (0x0)
    Signature Algorithm: sha256WithRSAEncryption
        Issuer: C=CT, ST=Barcelona, L=Bellaterra, O=PaySense, OU=ACA, CN=ACA/emailAddress=aca@deic.uab.cat
        Validity
            Not Before: Jul  8 08:56:54 2015 GMT
            Not After : Jul  7 08:56:54 2016 GMT
        Subject: C=CA, ST=Barcelona, L=Bellaterra, O=UAB, OU=DEIC, CN=mwryy9YdVezq2Wo1DukA5ADhrNemqCKTmy
        Subject Public Key Info:
            Public Key Algorithm: id-ecPublicKey
                Public-Key: (256 bit)
                pub: 
                    04:c8:7a:cf:50:9b:b7:95:7c:a8:33:44:5e:63:bf:
                    a8:21:42:2c:ae:02:66:eb:83:06:4c:22:6d:7b:fb:
                    75:dc:dc:43:40:c1:39:6b:b2:c1:77:56:5c:20:1b:
                    f8:38:76:96:9f:0b:9e:bc:9d:38:2f:8f:5b:7d:3e:
                    7d:27:d4:f8:89
                ASN1 OID: secp256k1
    Signature Algorithm: sha256WithRSAEncryption
         61:86:2a:09:65:3c:9c:e8:30:b4:07:bd:fb:2f:78:d9:1f:b8:
         26:87:d6:12:ca:12:78:51:5a:ce:fa:30:20:8f:47:f8:9f:df:
         17:a9:5b:f6:93:28:8a:d9:f7:73:f7:00:8d:2d:76:70:19:d5:
         b1:36:67:40:4c:a7:a8:35:32:43:b9:71:c6:95:8e:d3:c8:34:
         65:dd:4a:5e:92:da:14:08:6e:45:66:9b:f5:f5:a7:ed:07:0c:
         cd:cd:e1:67:ba:e8:21:e7:55:1d:68:7d:aa:31:83:4f:11:45:
         ae:38:37:6d:22:76:ce:fe:0a:52:91:00:68:18:a0:88:0d:69:
         87:e7:02:ec:2e:0c:c0:22:79:cf:39:c6:50:4e:4a:d7:8d:09:
         41:15:e4:3c:f0:ac:ef:18:2d:45:27:32:e2:3c:81:9e:1a:83:
         c0:13:07:a2:cf:97:ba:b0:88:53:de:eb:76:19:92:f9:d8:59:
         1c:68:8d:1d:d9:93:10:db:27:40:f4:4b:8d:7a:a9:0e:0e:ea:
         39:50:2e:29:ac:fc:7c:e6:46:11:04:a8:a7:71:4e:a3:06:ad:
         c8:f1:86:12:18:ee:3b:66:c9:3e:7c:50:1f:de:ee:7c:2e:02:
         c3:b1:7c:1a:9e:13:9c:1e:76:23:32:71:01:49:29:51:4f:90:
         97:c9:a4:59:3a:b3:5e:1f:37:70:e1:e6:72:bc:00:cf:2b:3b:
         02:25:b6:6c:aa:a5:0d:2f:04:b3:c4:e0:74:79:7f:d9:74:f2:
         1a:99:b6:5e:d0:b0:49:fe:cd:53:93:c7:6d:a7:5b:9c:da:b3:
         2c:11:a9:1e:ec:84:16:45:29:1b:b9:6e:cc:93:89:b6:80:80:
         74:0f:94:dd:9c:b6:b9:9f:c8:d3:13:1c:34:bb:57:32:f2:05:
         bd:9c:20:6c:fc:57:76:2b:15:17:06:28:8f:e8:71:ed:6b:c2:
         9f:83:14:24:1c:4e:ca:f1:3a:ec:1c:7b:02:13:02:84:ef:db:
         5d:c3:6f:da:48:51:27:44:50:2f:68:1a:58:e5:dc:5f:94:4e:
         46:4b:91:cb:ba:63:88:bd:73:bb:0e:74:e5:3c:f8:42:93:a9:
         c1:34:8e:ae:97:38:7e:52:a4:d7:b2:3b:6d:52:22:42:83:88:
         98:cb:8d:ff:76:ea:a0:66:c8:8e:f5:f2:df:fe:2c:7b:b6:7c:
         c8:04:af:12:5c:00:66:81:de:03:ca:d4:de:6e:25:0b:20:bf:
         37:8a:1a:b0:a3:6a:2d:99:33:20:fb:7d:9f:ba:2c:ba:b9:c9:
         ac:8b:29:79:f5:97:46:c2:56:ff:fd:62:11:d0:2e:ab:1f:26:
         da:48:ef:d7:11:f3:78:7d
-----BEGIN CERTIFICATE-----
MIIDrjCCAZYCAQAwDQYJKoZIhvcNAQELBQAwgYYxCzAJBgNVBAYTAkNUMRIwEAYD
VQQIDAlCYXJjZWxvbmExEzARBgNVBAcMCkJlbGxhdGVycmExETAPBgNVBAoMCFBh
eVNlbnNlMQwwCgYDVQQLDANBQ0ExDDAKBgNVBAMMA0FDQTEfMB0GCSqGSIb3DQEJ
ARYQYWNhQGRlaWMudWFiLmNhdDAeFw0xNTA3MDgwODU2NTRaFw0xNjA3MDcwODU2
NTRaMIGAMQswCQYDVQQGEwJDQTESMBAGA1UECAwJQmFyY2Vsb25hMRMwEQYDVQQH
DApCZWxsYXRlcnJhMQwwCgYDVQQKDANVQUIxDTALBgNVBAsMBERFSUMxKzApBgNV
BAMMIm13cnl5OVlkVmV6cTJXbzFEdWtBNUFEaHJOZW1xQ0tUbXkwVjAQBgcqhkjO
PQIBBgUrgQQACgNCAATIes9Qm7eVfKgzRF5jv6ghQiyuAmbrgwZMIm17+3Xc3ENA
wTlrssF3VlwgG/g4dpafC568nTgvj1t9Pn0n1PiJMA0GCSqGSIb3DQEBCwUAA4IC
AQBhhioJZTyc6DC0B737L3jZH7gmh9YSyhJ4UVrO+jAgj0f4n98XqVv2kyiK2fdz
9wCNLXZwGdWxNmdATKeoNTJDuXHGlY7TyDRl3UpektoUCG5FZpv19aftBwzNzeFn
uugh51UdaH2qMYNPEUWuODdtInbO/gpSkQBoGKCIDWmH5wLsLgzAInnPOcZQTkrX
jQlBFeQ88KzvGC1FJzLiPIGeGoPAEweiz5e6sIhT3ut2GZL52FkcaI0d2ZMQ2ydA
9EuNeqkODuo5UC4prPx85kYRBKincU6jBq3I8YYSGO47Zsk+fFAf3u58LgLDsXwa
nhOcHnYjMnEBSSlRT5CXyaRZOrNeHzdw4eZyvADPKzsCJbZsqqUNLwSzxOB0eX/Z
dPIambZe0LBJ/s1Tk8dtp1uc2rMsEake7IQWRSkbuW7Mk4m2gIB0D5TdnLa5n8jT
Exw0u1cy8gW9nCBs/Fd2KxUXBiiP6HHta8KfgxQkHE7K8TrsHHsCEwKE79tdw2/a
SFEnRFAvaBpY5dxflE5GS5HLumOIvXO7DnTlPPhCk6nBNI6ulzh+UqTXsjttUiJC
g4iYy43/duqgZsiO9fLf/ix7tnzIBK8SXABmgd4DytTebiULIL83ihqwo2otmTMg
+32fuiy6ucmsiyl59ZdGwlb//WIR0C6rHybaSO/XEfN4fQ==
-----END CERTIFICATE-----
