Certificate:
    Data:
        Version: 1 (0x0)
        Serial Number: 0 (0x0)
    Signature Algorithm: sha256WithRSAEncryption
        Issuer: C=CT, ST=Barcelona, L=Bellaterra, O=PaySense, OU=ACA, CN=ACA/emailAddress=aca@deic.uab.cat
        Validity
            Not Before: Nov 23 09:58:35 2015 GMT
            Not After : Nov 22 09:58:35 2016 GMT
        Subject: C=CT, ST=Barcelona, L=Bellaterra, O=UAB, OU=DEIC, CN=myekKSpmnK8cvk6GpF8fwg1HugtrBETZbk
        Subject Public Key Info:
            Public Key Algorithm: id-ecPublicKey
                Public-Key: (256 bit)
                pub: 
                    04:e8:b3:ca:c2:2c:ab:7d:f2:99:30:02:44:41:11:
                    b6:e9:da:61:83:96:f0:83:29:64:96:30:a2:ab:62:
                    7b:2d:c6:ea:fe:34:c6:6c:be:eb:b1:20:aa:ae:fd:
                    1b:da:08:dd:e4:be:0b:c0:e3:0e:63:de:fe:d5:02:
                    5d:88:5d:77:6a
                ASN1 OID: secp256k1
    Signature Algorithm: sha256WithRSAEncryption
         72:07:23:86:24:2a:0a:bc:2a:c2:24:25:03:26:81:98:58:f2:
         cd:96:ce:80:c2:d6:15:1a:8b:72:13:ab:43:60:93:f6:be:16:
         67:6c:6e:09:1f:3c:6f:83:b5:49:95:c3:df:13:8e:e5:f5:04:
         a2:48:44:b9:04:60:88:eb:1e:89:80:d9:c4:d7:44:6e:f5:a9:
         02:bc:13:6e:e9:8a:74:b0:b2:15:bb:4a:67:03:32:e4:09:49:
         f5:1b:87:5e:96:0e:80:43:52:28:e5:77:dd:ca:d2:41:69:74:
         ec:49:f0:83:2a:15:47:fc:1a:4a:81:d6:5e:48:8b:b2:19:b3:
         b3:dd:32:af:4e:5a:7d:14:7d:37:fd:38:74:3c:ef:5c:3d:c4:
         61:10:b5:fe:32:0b:8f:cc:e3:76:7a:f8:26:e6:9e:d5:39:7d:
         39:c1:a7:27:5f:d1:e1:0b:96:48:58:c1:36:05:8a:4d:d0:4e:
         73:af:ee:a3:2b:db:15:2b:54:d9:eb:9e:72:63:6f:6b:d5:c9:
         3e:2a:c4:5d:fe:69:b2:9f:e2:df:5b:ba:2f:28:41:d9:1d:c4:
         bd:02:66:f6:08:cd:d5:22:a6:35:c3:57:fa:b4:b4:48:2b:fb:
         f8:b0:db:7e:8b:ee:37:df:9f:78:23:34:bf:18:c9:8b:aa:2b:
         b6:6a:0c:11:b4:d1:9a:17:10:67:45:0b:60:bb:e4:3e:8b:c5:
         a0:78:61:23:5a:da:88:eb:af:42:fb:c7:ad:1b:c6:8e:da:92:
         72:2c:62:0f:23:9e:48:67:94:ac:70:37:a8:3d:71:4f:ac:f8:
         41:86:7b:9b:28:0f:af:f5:82:b2:ac:a9:43:ba:50:9f:ab:04:
         20:2c:a6:56:a8:7a:83:42:c2:09:49:bd:f8:19:d3:37:68:7f:
         69:bb:70:91:ff:c8:7b:34:ef:19:bf:bd:44:fe:42:81:82:41:
         cd:25:8f:b8:5c:3b:53:58:c5:2b:6a:a3:6a:1e:34:a9:ff:be:
         81:8d:87:11:ef:e3:69:54:5e:91:89:4a:01:5a:79:c9:cd:60:
         a4:b8:72:1a:bb:8e:dd:22:6d:78:35:b1:36:6d:c2:45:77:b8:
         cd:53:27:fe:26:1b:77:78:92:e1:25:cc:0c:d8:62:01:c2:14:
         ef:c5:0d:ad:4a:32:82:ae:03:6c:44:53:56:04:5a:4b:bd:15:
         ec:9c:d6:ca:4e:2f:b3:94:e4:58:57:da:bb:41:29:f9:a2:cf:
         f9:29:23:12:32:e4:32:03:4e:1a:73:07:4b:f7:f4:8e:d4:00:
         a0:0f:c5:a4:9b:01:61:34:39:f1:00:9c:ad:c7:3a:48:cf:a7:
         cc:2a:6b:86:d1:8c:b0:74
-----BEGIN CERTIFICATE-----
MIIDrjCCAZYCAQAwDQYJKoZIhvcNAQELBQAwgYYxCzAJBgNVBAYTAkNUMRIwEAYD
VQQIDAlCYXJjZWxvbmExEzARBgNVBAcMCkJlbGxhdGVycmExETAPBgNVBAoMCFBh
eVNlbnNlMQwwCgYDVQQLDANBQ0ExDDAKBgNVBAMMA0FDQTEfMB0GCSqGSIb3DQEJ
ARYQYWNhQGRlaWMudWFiLmNhdDAeFw0xNTExMjMwOTU4MzVaFw0xNjExMjIwOTU4
MzVaMIGAMQswCQYDVQQGEwJDVDESMBAGA1UECAwJQmFyY2Vsb25hMRMwEQYDVQQH
DApCZWxsYXRlcnJhMQwwCgYDVQQKDANVQUIxDTALBgNVBAsMBERFSUMxKzApBgNV
BAMMIm15ZWtLU3Btbks4Y3ZrNkdwRjhmd2cxSHVndHJCRVRaYmswVjAQBgcqhkjO
PQIBBgUrgQQACgNCAATos8rCLKt98pkwAkRBEbbp2mGDlvCDKWSWMKKrYnstxur+
NMZsvuuxIKqu/RvaCN3kvgvA4w5j3v7VAl2IXXdqMA0GCSqGSIb3DQEBCwUAA4IC
AQByByOGJCoKvCrCJCUDJoGYWPLNls6AwtYVGotyE6tDYJP2vhZnbG4JHzxvg7VJ
lcPfE47l9QSiSES5BGCI6x6JgNnE10Ru9akCvBNu6Yp0sLIVu0pnAzLkCUn1G4de
lg6AQ1Io5XfdytJBaXTsSfCDKhVH/BpKgdZeSIuyGbOz3TKvTlp9FH03/Th0PO9c
PcRhELX+MguPzON2evgm5p7VOX05wacnX9HhC5ZIWME2BYpN0E5zr+6jK9sVK1TZ
655yY29r1ck+KsRd/mmyn+LfW7ovKEHZHcS9Amb2CM3VIqY1w1f6tLRIK/v4sNt+
i+433594IzS/GMmLqiu2agwRtNGaFxBnRQtgu+Q+i8WgeGEjWtqI669C+8etG8aO
2pJyLGIPI55IZ5SscDeoPXFPrPhBhnubKA+v9YKyrKlDulCfqwQgLKZWqHqDQsIJ
Sb34GdM3aH9pu3CR/8h7NO8Zv71E/kKBgkHNJY+4XDtTWMUraqNqHjSp/76BjYcR
7+NpVF6RiUoBWnnJzWCkuHIau47dIm14NbE2bcJFd7jNUyf+Jht3eJLhJcwM2GIB
whTvxQ2tSjKCrgNsRFNWBFpLvRXsnNbKTi+zlORYV9q7QSn5os/5KSMSMuQyA04a
cwdL9/SO1ACgD8WkmwFhNDnxAJytxzpIz6fMKmuG0YywdA==
-----END CERTIFICATE-----
