Certificate:
    Data:
        Version: 1 (0x0)
        Serial Number: 0 (0x0)
    Signature Algorithm: sha256WithRSAEncryption
        Issuer: C=CT, ST=Barcelona, L=Bellaterra, O=PaySense, OU=ACA, CN=ACA/emailAddress=aca@deic.uab.cat
        Validity
            Not Before: Nov 23 09:58:35 2015 GMT
            Not After : Nov 22 09:58:35 2016 GMT
        Subject: C=CT, ST=Barcelona, L=Bellaterra, O=UAB, OU=DEIC, CN=n3msNPeCMfFDjLn7QLTLtxf8ZdpsCvyT6D
        Subject Public Key Info:
            Public Key Algorithm: id-ecPublicKey
                Public-Key: (256 bit)
                pub: 
                    04:ba:c5:0f:8e:e0:be:de:08:f6:6a:51:38:18:e1:
                    68:37:ed:28:ab:0d:c4:32:e8:8c:68:96:5e:61:19:
                    71:16:e3:4c:6b:d5:e5:d6:0b:63:58:bc:78:ed:10:
                    90:ad:d1:e0:2f:76:a0:b2:99:86:c6:e8:8c:34:77:
                    e1:1f:cd:26:f0
                ASN1 OID: secp256k1
    Signature Algorithm: sha256WithRSAEncryption
         1d:72:91:8b:12:5e:3e:87:5f:75:1c:c8:ac:9d:1a:c2:cd:0b:
         a4:cb:37:be:33:d7:49:dc:15:b8:de:30:e4:e6:e7:bd:8c:d8:
         86:14:70:f6:3b:90:89:dc:e5:3e:95:f6:51:eb:13:be:a9:04:
         c0:62:1b:5f:00:48:cf:af:8e:61:da:a8:7a:ec:61:00:10:e9:
         b2:76:f7:45:65:53:85:4e:71:44:5f:37:5d:9a:13:d5:d4:64:
         ea:99:b9:88:83:db:33:b4:b7:5b:0c:62:49:54:3b:8e:99:98:
         bd:1b:cc:3f:57:77:45:71:5e:96:9d:7d:92:94:c3:28:ae:ef:
         f7:04:ef:a9:5c:eb:f8:9f:13:e4:50:90:e8:99:f2:f7:2e:1c:
         70:f0:1a:94:05:57:9e:f9:43:59:ed:e7:b8:a2:28:8c:2a:9e:
         84:98:42:f2:dc:69:7a:fe:3d:cb:4a:59:d4:c8:5d:3e:cd:e2:
         e8:08:7f:e8:40:fa:a4:78:fc:ad:01:47:64:18:d5:9d:48:5c:
         1f:c9:fa:90:9a:26:30:1c:b5:8c:ed:23:05:f5:dd:38:8b:0d:
         b3:fe:7a:a5:50:7e:be:61:02:4a:0d:75:4d:29:3d:3d:ee:1f:
         00:6a:79:6a:ec:41:f4:0d:01:10:67:ce:2c:8f:41:7b:67:5f:
         17:a9:55:16:6b:2b:ce:98:c0:64:42:42:cd:bf:84:5c:05:59:
         d1:7b:2b:ca:e0:7a:36:0e:d5:21:6d:fa:9e:e3:f3:4d:f7:19:
         ee:88:40:b6:70:73:21:87:5d:c8:75:7e:4a:ab:74:3d:56:b6:
         a8:bf:bb:f6:c3:2c:82:56:c0:65:b6:1b:4c:0c:8d:8c:04:7b:
         73:73:0d:ce:08:19:fa:2d:55:42:c0:59:fa:cc:ae:f7:b3:1c:
         a5:0b:2d:ba:95:0f:26:f6:ce:0b:95:4f:c0:2b:db:e6:19:44:
         e1:12:28:98:dd:6f:78:15:42:a4:9a:23:71:22:1c:fe:40:c5:
         b4:0c:a2:73:40:57:d7:8a:4f:78:93:7d:5b:1c:5a:51:57:51:
         6c:84:7f:48:27:e7:fb:fd:cf:b1:85:c2:eb:e8:20:62:68:21:
         da:2d:1f:11:b6:2a:2d:9f:36:ca:45:bd:75:59:16:5b:5e:46:
         31:eb:40:b2:10:a9:79:ad:db:6f:6c:06:42:99:dc:49:ba:39:
         25:a4:44:8e:71:6c:38:29:9b:4e:c9:3e:62:64:39:a0:37:a0:
         74:95:84:c9:26:08:27:4c:8f:37:a6:13:89:5b:38:f7:80:8b:
         cb:0e:9a:fe:86:15:01:4d:77:82:d2:5b:e0:b4:00:ba:68:6f:
         5b:68:68:cb:95:e5:d5:ea
-----BEGIN CERTIFICATE-----
MIIDrjCCAZYCAQAwDQYJKoZIhvcNAQELBQAwgYYxCzAJBgNVBAYTAkNUMRIwEAYD
VQQIDAlCYXJjZWxvbmExEzARBgNVBAcMCkJlbGxhdGVycmExETAPBgNVBAoMCFBh
eVNlbnNlMQwwCgYDVQQLDANBQ0ExDDAKBgNVBAMMA0FDQTEfMB0GCSqGSIb3DQEJ
ARYQYWNhQGRlaWMudWFiLmNhdDAeFw0xNTExMjMwOTU4MzVaFw0xNjExMjIwOTU4
MzVaMIGAMQswCQYDVQQGEwJDVDESMBAGA1UECAwJQmFyY2Vsb25hMRMwEQYDVQQH
DApCZWxsYXRlcnJhMQwwCgYDVQQKDANVQUIxDTALBgNVBAsMBERFSUMxKzApBgNV
BAMMIm4zbXNOUGVDTWZGRGpMbjdRTFRMdHhmOFpkcHNDdnlUNkQwVjAQBgcqhkjO
PQIBBgUrgQQACgNCAAS6xQ+O4L7eCPZqUTgY4Wg37SirDcQy6Ixoll5hGXEW40xr
1eXWC2NYvHjtEJCt0eAvdqCymYbG6Iw0d+EfzSbwMA0GCSqGSIb3DQEBCwUAA4IC
AQAdcpGLEl4+h191HMisnRrCzQukyze+M9dJ3BW43jDk5ue9jNiGFHD2O5CJ3OU+
lfZR6xO+qQTAYhtfAEjPr45h2qh67GEAEOmydvdFZVOFTnFEXzddmhPV1GTqmbmI
g9sztLdbDGJJVDuOmZi9G8w/V3dFcV6WnX2SlMMoru/3BO+pXOv4nxPkUJDomfL3
Lhxw8BqUBVee+UNZ7ee4oiiMKp6EmELy3Gl6/j3LSlnUyF0+zeLoCH/oQPqkePyt
AUdkGNWdSFwfyfqQmiYwHLWM7SMF9d04iw2z/nqlUH6+YQJKDXVNKT097h8Aanlq
7EH0DQEQZ84sj0F7Z18XqVUWayvOmMBkQkLNv4RcBVnReyvK4Ho2DtUhbfqe4/NN
9xnuiEC2cHMhh13IdX5Kq3Q9Vraov7v2wyyCVsBlthtMDI2MBHtzcw3OCBn6LVVC
wFn6zK73sxylCy26lQ8m9s4LlU/AK9vmGUThEiiY3W94FUKkmiNxIhz+QMW0DKJz
QFfXik94k31bHFpRV1FshH9IJ+f7/c+xhcLr6CBiaCHaLR8RtiotnzbKRb11WRZb
XkYx60CyEKl5rdtvbAZCmdxJujklpESOcWw4KZtOyT5iZDmgN6B0lYTJJggnTI83
phOJWzj3gIvLDpr+hhUBTXeC0lvgtAC6aG9baGjLleXV6g==
-----END CERTIFICATE-----
