Certificate:
    Data:
        Version: 1 (0x0)
        Serial Number: 0 (0x0)
    Signature Algorithm: sha256WithRSAEncryption
        Issuer: C=CT, ST=Barcelona, L=Bellaterra, O=PaySense, OU=ACA, CN=ACA/emailAddress=aca@deic.uab.cat
        Validity
            Not Before: Jul  8 08:53:58 2015 GMT
            Not After : Jul  7 08:53:58 2016 GMT
        Subject: C=CA, ST=Barcelona, L=Bellaterra, O=UAB, OU=DEIC, CN=n3rvZymQr7oa1VxU1pfTqhLEmE2DqxG2ZR
        Subject Public Key Info:
            Public Key Algorithm: id-ecPublicKey
                Public-Key: (256 bit)
                pub: 
                    04:38:a8:f3:ab:9e:98:82:1b:68:01:49:7b:7f:d1:
                    d3:42:69:21:5f:2a:c3:e0:c7:6f:25:26:e7:e0:c7:
                    63:60:ba:0e:d4:92:3b:d7:5d:fd:7b:92:4a:ed:8c:
                    b1:4b:e2:26:6c:b8:2b:1c:14:bf:08:43:49:73:83:
                    d6:49:df:b9:49
                ASN1 OID: secp256k1
    Signature Algorithm: sha256WithRSAEncryption
         35:ea:dc:55:84:ab:e0:c3:e8:ce:92:0a:8a:e6:01:d8:52:f3:
         f6:a4:63:09:01:70:29:90:f6:4e:5f:59:83:32:d9:8b:58:1c:
         a0:a2:b0:3d:fb:56:cb:b7:40:d0:71:04:12:13:00:d7:c4:56:
         32:8d:66:a3:72:09:1b:54:49:cf:d3:34:fa:2e:48:06:ae:0e:
         d4:03:5c:1e:bc:e9:dc:5d:94:09:e9:ed:9b:f3:90:23:0e:d8:
         b6:ee:2b:8c:9c:4b:0f:2a:42:39:0d:f1:9f:6d:3f:f1:4e:25:
         73:59:24:25:06:e3:42:47:e4:3f:85:b7:5b:cb:45:e3:8e:3c:
         af:b4:a8:5d:2f:f1:d9:5d:27:df:91:1b:a1:9c:8d:4e:c7:a6:
         69:64:73:a0:55:13:5c:48:08:b2:6e:9b:a9:96:5f:f9:11:fc:
         f9:59:5e:1a:e5:1e:4f:37:93:cc:f8:15:f4:09:13:c1:8f:43:
         e3:e4:66:4d:70:3a:68:e3:f0:f7:37:03:6c:6d:26:37:00:a5:
         32:a5:0f:34:c5:f0:93:cd:ee:5e:f8:be:d6:70:64:82:6e:5c:
         57:26:74:77:5c:be:ab:6a:10:2b:14:93:1d:50:af:40:d8:0f:
         cb:ef:d1:1c:e3:ec:b0:e1:07:fc:e6:87:a0:71:9b:43:6b:ca:
         da:2c:a9:d1:4a:36:9c:94:e4:c6:b2:e5:50:bd:e1:1e:11:a7:
         8f:60:3a:23:55:96:34:6a:5c:10:32:5c:59:61:7d:96:97:74:
         1c:3e:c6:a6:ff:17:4f:36:72:36:50:d5:b4:c1:e1:c1:da:b4:
         95:20:ca:b5:9f:3f:89:6d:45:91:cc:d4:e3:7e:ff:6f:84:32:
         5d:e5:d3:f8:28:01:73:c0:35:e0:df:aa:a1:f2:5e:2b:83:8d:
         1c:d2:7e:74:18:30:41:cd:5d:84:dd:4d:c8:6e:ee:e5:27:d1:
         25:4d:84:27:6b:31:6c:9e:af:4f:4c:3c:88:2d:f8:c4:13:1f:
         a5:41:48:6a:02:21:f5:e0:3a:f8:be:42:cb:d7:75:d0:63:2c:
         e3:81:02:9f:6d:05:4d:61:e9:ae:21:ad:5c:79:5b:22:8c:12:
         cd:00:f1:fc:ac:f9:d4:67:b8:27:d7:69:72:26:d6:dc:01:f3:
         98:50:d0:b7:74:eb:9d:40:51:93:d0:6d:b5:28:45:1a:0b:6d:
         20:27:2b:49:47:20:69:3e:f2:d7:fd:2e:ad:89:b4:cb:db:8f:
         39:1e:d7:87:5f:1e:a5:30:01:0d:af:ea:e6:ef:fa:5f:f0:b5:
         56:aa:6d:fc:c8:37:a1:f7:bc:27:c2:56:b4:39:06:cd:cf:8d:
         5e:62:26:43:46:fe:53:41
-----BEGIN CERTIFICATE-----
MIIDrjCCAZYCAQAwDQYJKoZIhvcNAQELBQAwgYYxCzAJBgNVBAYTAkNUMRIwEAYD
VQQIDAlCYXJjZWxvbmExEzARBgNVBAcMCkJlbGxhdGVycmExETAPBgNVBAoMCFBh
eVNlbnNlMQwwCgYDVQQLDANBQ0ExDDAKBgNVBAMMA0FDQTEfMB0GCSqGSIb3DQEJ
ARYQYWNhQGRlaWMudWFiLmNhdDAeFw0xNTA3MDgwODUzNThaFw0xNjA3MDcwODUz
NThaMIGAMQswCQYDVQQGEwJDQTESMBAGA1UECAwJQmFyY2Vsb25hMRMwEQYDVQQH
DApCZWxsYXRlcnJhMQwwCgYDVQQKDANVQUIxDTALBgNVBAsMBERFSUMxKzApBgNV
BAMMIm4zcnZaeW1RcjdvYTFWeFUxcGZUcWhMRW1FMkRxeEcyWlIwVjAQBgcqhkjO
PQIBBgUrgQQACgNCAAQ4qPOrnpiCG2gBSXt/0dNCaSFfKsPgx28lJufgx2Ngug7U
kjvXXf17kkrtjLFL4iZsuCscFL8IQ0lzg9ZJ37lJMA0GCSqGSIb3DQEBCwUAA4IC
AQA16txVhKvgw+jOkgqK5gHYUvP2pGMJAXApkPZOX1mDMtmLWBygorA9+1bLt0DQ
cQQSEwDXxFYyjWajcgkbVEnP0zT6LkgGrg7UA1wevOncXZQJ6e2b85AjDti27iuM
nEsPKkI5DfGfbT/xTiVzWSQlBuNCR+Q/hbdby0XjjjyvtKhdL/HZXSffkRuhnI1O
x6ZpZHOgVRNcSAiybpupll/5Efz5WV4a5R5PN5PM+BX0CRPBj0Pj5GZNcDpo4/D3
NwNsbSY3AKUypQ80xfCTze5e+L7WcGSCblxXJnR3XL6rahArFJMdUK9A2A/L79Ec
4+yw4Qf85oegcZtDa8raLKnRSjaclOTGsuVQveEeEaePYDojVZY0alwQMlxZYX2W
l3QcPsam/xdPNnI2UNW0weHB2rSVIMq1nz+JbUWRzNTjfv9vhDJd5dP4KAFzwDXg
36qh8l4rg40c0n50GDBBzV2E3U3Ibu7lJ9ElTYQnazFsnq9PTDyILfjEEx+lQUhq
AiH14Dr4vkLL13XQYyzjgQKfbQVNYemuIa1ceVsijBLNAPH8rPnUZ7gn12lyJtbc
AfOYUNC3dOudQFGT0G21KEUaC20gJytJRyBpPvLX/S6tibTL2485HteHXx6lMAEN
r+rm7/pf8LVWqm38yDeh97wnwla0OQbNz41eYiZDRv5TQQ==
-----END CERTIFICATE-----
