Certificate:
    Data:
        Version: 1 (0x0)
        Serial Number: 0 (0x0)
    Signature Algorithm: sha256WithRSAEncryption
        Issuer: C=CT, ST=Barcelona, L=Bellaterra, O=PaySense, OU=ACA, CN=ACA/emailAddress=aca@deic.uab.cat
        Validity
            Not Before: May 10 18:04:15 2015 GMT
            Not After : May  9 18:04:15 2016 GMT
        Subject: C=CA, ST=Barcelona, L=Bellaterra, O=UAB, OU=DEIC, CN=mkhrXULTeuwdNGSKVKhR1tjCFMktT6pXFX
        Subject Public Key Info:
            Public Key Algorithm: id-ecPublicKey
                Public-Key: (256 bit)
                pub: 
                    04:56:52:26:d1:ee:70:08:78:82:5e:3b:2e:cd:d8:
                    6d:1b:69:80:12:6b:46:3b:f2:fc:54:1d:10:28:9f:
                    9c:74:d4:c8:e9:55:18:59:b2:47:de:b7:ff:3c:14:
                    48:94:b6:e9:af:60:f4:60:94:c4:c8:63:72:10:3f:
                    3a:d0:1f:b0:43
                ASN1 OID: secp256k1
    Signature Algorithm: sha256WithRSAEncryption
         a4:d5:4e:86:e4:fe:42:11:ee:5c:c3:a4:c6:4c:b0:27:8f:a1:
         3e:08:2a:6d:25:75:57:29:b2:e6:01:35:d2:23:30:1e:10:ef:
         d2:82:e8:8b:c5:16:ef:3e:64:53:f3:31:65:04:bc:cd:13:bc:
         b8:f8:ce:16:af:d9:68:a8:70:53
-----BEGIN CERTIFICATE-----
MIIB7DCCAZYCAQAwDQYJKoZIhvcNAQELBQAwgYYxCzAJBgNVBAYTAkNUMRIwEAYD
VQQIEwlCYXJjZWxvbmExEzARBgNVBAcTCkJlbGxhdGVycmExETAPBgNVBAoTCFBh
eVNlbnNlMQwwCgYDVQQLEwNBQ0ExDDAKBgNVBAMTA0FDQTEfMB0GCSqGSIb3DQEJ
ARYQYWNhQGRlaWMudWFiLmNhdDAeFw0xNTA1MTAxODA0MTVaFw0xNjA1MDkxODA0
MTVaMIGAMQswCQYDVQQGEwJDQTESMBAGA1UECBMJQmFyY2Vsb25hMRMwEQYDVQQH
EwpCZWxsYXRlcnJhMQwwCgYDVQQKEwNVQUIxDTALBgNVBAsTBERFSUMxKzApBgNV
BAMTIm1raHJYVUxUZXV3ZE5HU0tWS2hSMXRqQ0ZNa3RUNnBYRlgwVjAQBgcqhkjO
PQIBBgUrgQQACgNCAARWUibR7nAIeIJeOy7N2G0baYASa0Y78vxUHRAon5x01Mjp
VRhZskfet/88FEiUtumvYPRglMTIY3IQPzrQH7BDMA0GCSqGSIb3DQEBCwUAA0EA
pNVOhuT+QhHuXMOkxkywJ4+hPggqbSV1Vymy5gE10iMwHhDv0oLoi8UW7z5kU/Mx
ZQS8zRO8uPjOFq/ZaKhwUw==
-----END CERTIFICATE-----
