Certificate:
    Data:
        Version: 1 (0x0)
        Serial Number: 0 (0x0)
    Signature Algorithm: sha256WithRSAEncryption
        Issuer: C=CT, ST=Barcelona, L=Bellaterra, O=PaySense, OU=ACA, CN=ACA/emailAddress=aca@deic.uab.cat
        Validity
            Not Before: Nov 17 12:10:27 2015 GMT
            Not After : Nov 16 12:10:27 2016 GMT
        Subject: C=CT, ST=Barcelona, L=Bellaterra, O=UAB, OU=DEIC, CN=mh57SL4NBqjecEKYoKRegyiVYLr7QUahkY
        Subject Public Key Info:
            Public Key Algorithm: id-ecPublicKey
                Public-Key: (256 bit)
                pub: 
                    04:d1:ba:03:01:e6:36:54:5d:18:ae:80:16:8a:c1:
                    44:85:6c:66:f1:3f:3f:30:d2:2b:6a:29:a8:14:01:
                    ff:fd:e6:19:9b:29:8d:f9:91:b4:eb:79:79:71:1a:
                    33:5e:cf:57:14:db:c9:4f:7b:af:ee:a0:00:47:99:
                    dd:12:5b:52:1c
                ASN1 OID: secp256k1
    Signature Algorithm: sha256WithRSAEncryption
         24:0e:1c:9d:92:5e:c0:de:31:0f:c7:2b:d0:61:29:16:42:50:
         53:a5:9c:6e:66:f5:f5:64:b7:fc:01:d5:1d:9d:ba:ee:0d:f9:
         1a:a7:1f:75:57:21:29:17:bd:c0:6a:a1:50:af:c1:cb:3e:06:
         61:16:79:6a:18:ea:41:d7:05:75:45:66:bf:c3:5b:b4:67:4d:
         ee:47:6b:63:26:80:84:58:4e:f3:40:d5:db:33:98:29:58:cc:
         08:54:d4:92:96:1d:2e:ec:7d:12:a8:2c:f9:39:88:a6:41:53:
         c6:11:0c:3c:ed:3c:23:1e:d3:c1:77:bc:28:ae:b6:e8:b0:6d:
         12:1a:80:58:ac:b5:31:d7:91:b0:8c:94:f1:f8:1f:cb:fb:6e:
         6e:16:dd:27:14:f9:0d:5f:6b:5c:40:3c:11:5d:af:91:2a:7d:
         98:85:70:80:96:89:09:1c:7a:6b:90:7d:b7:49:bb:0d:30:8b:
         0b:af:74:6b:de:8f:db:66:e2:41:ef:bb:29:ae:6b:79:1d:7a:
         08:d7:a7:a0:cd:3d:fd:45:b1:63:26:e8:df:cc:ee:93:4d:6b:
         2f:77:60:92:c8:46:25:01:42:7d:56:50:7d:f0:01:67:11:71:
         95:c3:81:6d:18:71:8c:e1:06:41:17:bb:00:57:72:2a:6b:cc:
         77:6b:45:f5:65:63:d6:55:00:c9:f1:f7:9c:06:19:59:72:3b:
         44:a4:0c:d0:e5:4d:5d:52:54:cf:d4:a9:59:2d:f8:63:0d:4e:
         0e:f4:f0:5c:b9:a7:d7:f2:86:e9:12:94:15:98:1f:ef:a3:8a:
         18:4a:90:fc:3a:28:69:0d:83:40:21:32:6a:8c:c8:62:e0:16:
         52:c7:12:f0:6c:94:c0:64:17:da:4e:e4:f4:d7:f6:f0:55:e3:
         40:52:7d:41:8f:da:cc:cf:b5:08:a5:42:ab:f1:a5:d6:18:4b:
         24:00:65:37:e1:8f:83:6c:5b:6a:d6:ad:02:d9:e7:1d:a3:1e:
         dd:99:2b:a8:ea:70:68:38:c4:15:64:e7:0c:41:d5:78:c4:62:
         04:48:63:7c:d3:2f:32:96:88:f5:2c:eb:40:3d:de:4e:58:1e:
         08:f9:f6:1e:4e:c2:60:34:a6:ff:ca:04:8d:e9:6a:67:a8:d5:
         bf:c3:6e:aa:4a:67:ab:9b:ec:98:d1:bd:4b:5e:63:4d:17:4f:
         12:87:eb:b2:0a:af:3b:aa:5c:e8:0b:c2:63:58:1d:67:35:7e:
         8b:c1:78:a8:5f:9a:4c:fc:78:a2:b2:85:40:cd:6a:07:af:09:
         e6:82:5f:6c:ab:47:72:8e:f9:32:9d:70:23:46:0e:aa:4c:96:
         f5:bf:91:d1:02:89:d8:79
-----BEGIN CERTIFICATE-----
MIIDrjCCAZYCAQAwDQYJKoZIhvcNAQELBQAwgYYxCzAJBgNVBAYTAkNUMRIwEAYD
VQQIDAlCYXJjZWxvbmExEzARBgNVBAcMCkJlbGxhdGVycmExETAPBgNVBAoMCFBh
eVNlbnNlMQwwCgYDVQQLDANBQ0ExDDAKBgNVBAMMA0FDQTEfMB0GCSqGSIb3DQEJ
ARYQYWNhQGRlaWMudWFiLmNhdDAeFw0xNTExMTcxMjEwMjdaFw0xNjExMTYxMjEw
MjdaMIGAMQswCQYDVQQGEwJDVDESMBAGA1UECAwJQmFyY2Vsb25hMRMwEQYDVQQH
DApCZWxsYXRlcnJhMQwwCgYDVQQKDANVQUIxDTALBgNVBAsMBERFSUMxKzApBgNV
BAMMIm1oNTdTTDROQnFqZWNFS1lvS1JlZ3lpVllMcjdRVWFoa1kwVjAQBgcqhkjO
PQIBBgUrgQQACgNCAATRugMB5jZUXRiugBaKwUSFbGbxPz8w0itqKagUAf/95hmb
KY35kbTreXlxGjNez1cU28lPe6/uoABHmd0SW1IcMA0GCSqGSIb3DQEBCwUAA4IC
AQAkDhydkl7A3jEPxyvQYSkWQlBTpZxuZvX1ZLf8AdUdnbruDfkapx91VyEpF73A
aqFQr8HLPgZhFnlqGOpB1wV1RWa/w1u0Z03uR2tjJoCEWE7zQNXbM5gpWMwIVNSS
lh0u7H0SqCz5OYimQVPGEQw87TwjHtPBd7worrbosG0SGoBYrLUx15GwjJTx+B/L
+25uFt0nFPkNX2tcQDwRXa+RKn2YhXCAlokJHHprkH23SbsNMIsLr3Rr3o/bZuJB
77sprmt5HXoI16egzT39RbFjJujfzO6TTWsvd2CSyEYlAUJ9VlB98AFnEXGVw4Ft
GHGM4QZBF7sAV3Iqa8x3a0X1ZWPWVQDJ8fecBhlZcjtEpAzQ5U1dUlTP1KlZLfhj
DU4O9PBcuafX8obpEpQVmB/vo4oYSpD8OihpDYNAITJqjMhi4BZSxxLwbJTAZBfa
TuT01/bwVeNAUn1Bj9rMz7UIpUKr8aXWGEskAGU34Y+DbFtq1q0C2ecdox7dmSuo
6nBoOMQVZOcMQdV4xGIESGN80y8yloj1LOtAPd5OWB4I+fYeTsJgNKb/ygSN6Wpn
qNW/w26qSmerm+yY0b1LXmNNF08Sh+uyCq87qlzoC8JjWB1nNX6LwXioX5pM/Hii
soVAzWoHrwnmgl9sq0dyjvkynXAjRg6qTJb1v5HRAonYeQ==
-----END CERTIFICATE-----
