Certificate:
    Data:
        Version: 1 (0x0)
        Serial Number: 0 (0x0)
    Signature Algorithm: sha256WithRSAEncryption
        Issuer: C=CT, ST=Barcelona, L=Bellaterra, O=PaySense, OU=ACA, CN=ACA/emailAddress=aca@deic.uab.cat
        Validity
            Not Before: Nov 18 14:37:28 2015 GMT
            Not After : Nov 17 14:37:28 2016 GMT
        Subject: C=CT, ST=Barcelona, L=Bellaterra, O=UAB, OU=DEIC, CN=mm2NUowTdxTqqi4En621vosrJqc1a98CVQ
        Subject Public Key Info:
            Public Key Algorithm: id-ecPublicKey
                Public-Key: (256 bit)
                pub: 
                    04:be:3d:27:53:7e:15:77:54:88:25:93:1a:23:c2:
                    c7:57:6f:95:b3:c1:cc:e2:f9:70:29:a8:6a:ec:15:
                    8a:15:94:b4:b0:f4:7b:a6:2b:46:28:d9:cd:2f:75:
                    72:c0:e6:11:5c:92:6e:a0:50:41:f6:67:00:2d:ef:
                    ca:a1:19:e9:a9
                ASN1 OID: secp256k1
    Signature Algorithm: sha256WithRSAEncryption
         99:71:de:26:48:82:aa:c8:9a:89:c9:5e:77:28:b0:2e:1e:7d:
         2d:0d:b5:95:c3:f8:92:d0:eb:e9:76:f4:7c:6a:76:ee:ae:54:
         ce:25:ac:46:12:44:c6:b8:50:87:f9:44:64:18:b6:e5:70:3a:
         c5:b1:af:18:09:ad:9e:94:f1:89:f8:65:61:8c:68:0a:2f:5b:
         09:f0:48:f4:79:78:dc:9e:62:52:0b:83:22:88:f5:d1:0e:78:
         bd:20:3a:97:4f:23:c0:9a:4e:13:fe:9c:a3:94:14:b9:30:1f:
         59:9a:9d:ec:8f:a2:54:c8:93:a6:60:65:47:b3:b6:0d:36:54:
         10:52:46:ca:c7:fd:1b:25:ab:e3:17:c3:60:e6:ff:45:f8:a9:
         8d:65:c7:5e:70:57:ad:39:fb:c0:64:24:4e:17:b2:56:93:e8:
         2c:f0:eb:91:91:be:40:e6:b5:95:55:d5:58:74:1a:31:cf:f2:
         d8:9f:c0:e5:4b:92:c6:b3:a6:03:3d:75:8a:24:70:89:fa:de:
         a6:01:37:fe:77:b9:44:4b:47:27:5b:30:83:4c:9d:66:4e:ad:
         8c:bd:8d:38:55:3c:ad:d8:39:b3:d8:1e:cb:bc:5d:d7:8c:db:
         cd:8b:97:f5:42:ca:c3:b4:6e:4c:4f:e2:32:b5:46:c0:09:c1:
         8d:36:2e:b5:63:55:91:c4:75:a7:64:c4:c8:4c:ce:69:12:18:
         0e:e0:4c:f7:1b:cb:a2:4c:b4:c9:ab:1f:f9:c5:66:88:d0:15:
         0a:8f:37:40:93:32:ef:7c:5c:e2:54:bc:3d:1e:09:bc:45:7f:
         5a:5e:77:45:2d:63:3d:03:a5:b9:ae:dd:3c:75:50:ff:99:dc:
         f2:3a:62:ac:43:3e:96:67:70:60:c3:40:01:b9:f7:f0:2c:5b:
         52:d7:b6:a8:1d:39:cf:66:fb:b9:42:61:4e:25:36:08:15:54:
         ea:a4:57:c2:fc:bd:c6:d7:33:b6:6f:5c:79:94:e1:94:8c:6c:
         2b:18:26:e6:ac:16:7e:4f:48:33:ef:bf:c3:97:ea:70:71:dc:
         ac:c6:98:9d:91:b4:72:e9:82:81:fa:b0:7a:b7:09:52:30:fa:
         94:98:ff:5a:81:f5:18:f9:7e:7d:ff:06:fe:e3:18:57:2c:42:
         1e:b2:cc:e7:5c:e3:f3:38:32:a1:c4:0e:12:1c:85:87:04:2e:
         07:04:2c:14:23:40:4c:a3:9c:0a:9e:82:de:23:15:89:38:21:
         9e:dc:cc:b9:a1:ec:5d:e1:ce:d9:6b:37:0e:7f:e5:23:d3:41:
         60:95:32:9b:d9:04:48:f5:c3:0b:9d:0b:c4:5e:58:d3:83:e3:
         ba:97:b0:62:91:f7:44:f3
-----BEGIN CERTIFICATE-----
MIIDrjCCAZYCAQAwDQYJKoZIhvcNAQELBQAwgYYxCzAJBgNVBAYTAkNUMRIwEAYD
VQQIDAlCYXJjZWxvbmExEzARBgNVBAcMCkJlbGxhdGVycmExETAPBgNVBAoMCFBh
eVNlbnNlMQwwCgYDVQQLDANBQ0ExDDAKBgNVBAMMA0FDQTEfMB0GCSqGSIb3DQEJ
ARYQYWNhQGRlaWMudWFiLmNhdDAeFw0xNTExMTgxNDM3MjhaFw0xNjExMTcxNDM3
MjhaMIGAMQswCQYDVQQGEwJDVDESMBAGA1UECAwJQmFyY2Vsb25hMRMwEQYDVQQH
DApCZWxsYXRlcnJhMQwwCgYDVQQKDANVQUIxDTALBgNVBAsMBERFSUMxKzApBgNV
BAMMIm1tMk5Vb3dUZHhUcXFpNEVuNjIxdm9zckpxYzFhOThDVlEwVjAQBgcqhkjO
PQIBBgUrgQQACgNCAAS+PSdTfhV3VIglkxojwsdXb5Wzwczi+XApqGrsFYoVlLSw
9HumK0Yo2c0vdXLA5hFckm6gUEH2ZwAt78qhGempMA0GCSqGSIb3DQEBCwUAA4IC
AQCZcd4mSIKqyJqJyV53KLAuHn0tDbWVw/iS0OvpdvR8anburlTOJaxGEkTGuFCH
+URkGLblcDrFsa8YCa2elPGJ+GVhjGgKL1sJ8Ej0eXjcnmJSC4MiiPXRDni9IDqX
TyPAmk4T/pyjlBS5MB9Zmp3sj6JUyJOmYGVHs7YNNlQQUkbKx/0bJavjF8Ng5v9F
+KmNZcdecFetOfvAZCROF7JWk+gs8OuRkb5A5rWVVdVYdBoxz/LYn8DlS5LGs6YD
PXWKJHCJ+t6mATf+d7lES0cnWzCDTJ1mTq2MvY04VTyt2Dmz2B7LvF3XjNvNi5f1
QsrDtG5MT+IytUbACcGNNi61Y1WRxHWnZMTITM5pEhgO4Ez3G8uiTLTJqx/5xWaI
0BUKjzdAkzLvfFziVLw9Hgm8RX9aXndFLWM9A6W5rt08dVD/mdzyOmKsQz6WZ3Bg
w0ABuffwLFtS17aoHTnPZvu5QmFOJTYIFVTqpFfC/L3G1zO2b1x5lOGUjGwrGCbm
rBZ+T0gz77/Dl+pwcdysxpidkbRy6YKB+rB6twlSMPqUmP9agfUY+X59/wb+4xhX
LEIessznXOPzODKhxA4SHIWHBC4HBCwUI0BMo5wKnoLeIxWJOCGe3My5oexd4c7Z
azcOf+Uj00FglTKb2QRI9cMLnQvEXljTg+O6l7BikfdE8w==
-----END CERTIFICATE-----
