Certificate:
    Data:
        Version: 1 (0x0)
        Serial Number: 0 (0x0)
    Signature Algorithm: sha256WithRSAEncryption
        Issuer: C=CT, ST=Barcelona, L=Bellaterra, O=PaySense, OU=ACA, CN=ACA/emailAddress=aca@deic.uab.cat
        Validity
            Not Before: Nov  2 11:55:02 2015 GMT
            Not After : Nov  1 11:55:02 2016 GMT
        Subject: C=CT, ST=Barcelona, L=Bellaterra, O=UAB, OU=DEIC, CN=n1T9HUgAWQQTvCaigxQTYa8BtvaT65ZKc4
        Subject Public Key Info:
            Public Key Algorithm: id-ecPublicKey
                Public-Key: (256 bit)
                pub: 
                    04:5b:4a:5c:8f:d6:b2:59:d4:74:56:e4:91:52:5c:
                    c0:28:c3:6c:e7:f6:f1:e7:4b:04:ea:94:41:81:1e:
                    8e:a3:1e:c4:52:9a:40:21:20:d4:e2:42:84:db:35:
                    f4:e5:94:ce:6f:9c:d9:63:f1:1a:9b:51:fe:ec:b5:
                    fc:4f:a4:c3:63
                ASN1 OID: secp256k1
    Signature Algorithm: sha256WithRSAEncryption
         5c:88:a7:e1:21:a5:5e:98:42:81:33:de:8a:65:dc:54:c9:ee:
         b1:d5:c9:ac:ff:c1:6b:f1:fe:c0:1d:52:34:87:78:40:cb:60:
         f2:f7:e3:9d:74:f8:c8:9a:07:9c:02:22:66:8d:5a:5c:59:8f:
         a5:f7:dc:7e:5a:26:88:e5:e7:ab:61:b1:78:99:2c:2c:4d:cd:
         10:95:32:2b:7d:02:04:eb:e6:51:c7:27:fd:5c:a3:ef:db:8d:
         8a:07:11:a2:8c:95:ac:de:11:45:a0:96:34:19:98:ef:ae:33:
         98:ef:8b:5d:31:04:22:b6:64:23:d9:70:7c:5b:4f:64:ec:e0:
         61:e0:b1:56:cb:b5:3a:6a:b0:8d:80:b8:6c:c9:e9:69:13:af:
         3c:63:97:8c:8e:2a:e6:ca:22:07:f8:40:9a:b7:a6:bd:0f:96:
         0a:d2:08:ec:85:01:6c:00:fa:63:d7:92:a5:be:7d:8a:0b:71:
         20:dc:83:98:ac:0b:28:10:9e:43:2d:be:7f:b2:32:38:0e:fd:
         15:77:6c:be:04:20:cd:f3:21:24:cf:d2:7b:ab:a0:90:7c:bb:
         5e:bd:de:51:fb:bf:02:f8:66:70:e0:ac:dc:be:fc:3a:39:4e:
         d7:30:d8:49:72:4c:e6:f5:dd:7e:06:4a:b0:5f:ee:8b:a0:55:
         8e:75:56:eb:6c:1c:95:45:f0:b2:63:5b:4f:7a:e4:20:8e:04:
         2b:c9:ad:79:11:bc:b8:be:12:2c:ef:14:18:13:2a:b5:d3:e1:
         f8:04:b8:92:4f:06:53:2f:47:f0:c2:0b:a8:a4:8d:3b:d2:9c:
         42:a4:35:0f:bd:93:42:95:19:f1:f8:85:e3:0e:ea:cb:3e:f2:
         5a:b3:42:94:60:07:31:dc:54:82:3d:48:85:83:1b:3c:10:13:
         eb:37:bb:b4:0a:d1:97:93:79:cd:ae:6c:13:de:47:ce:cd:8b:
         55:87:be:a0:03:26:99:0e:0a:ef:a3:45:e7:9c:2b:d1:0c:e4:
         15:c3:c5:9f:0a:27:fe:ad:ae:0d:8f:ca:16:fd:c4:3d:c9:33:
         58:28:0d:1d:2c:3e:bb:7a:b5:6a:01:d2:52:ee:dc:65:f8:f6:
         2a:9f:85:eb:46:3d:3f:d9:95:eb:1a:82:b8:26:d3:cf:80:a6:
         26:be:30:bb:2a:b0:b9:51:d8:41:11:ed:3b:d8:e0:01:ac:38:
         39:cc:b2:85:2b:8a:cd:8e:52:81:06:9a:fc:e0:88:92:fb:c7:
         0c:b0:d0:21:a7:07:10:9c:10:49:f3:3e:0a:91:9f:7e:79:ab:
         63:ba:ce:37:8e:a7:df:0c:82:81:e9:97:62:bf:42:91:6c:dd:
         5a:db:4e:23:16:e9:c6:eb
-----BEGIN CERTIFICATE-----
MIIDrjCCAZYCAQAwDQYJKoZIhvcNAQELBQAwgYYxCzAJBgNVBAYTAkNUMRIwEAYD
VQQIDAlCYXJjZWxvbmExEzARBgNVBAcMCkJlbGxhdGVycmExETAPBgNVBAoMCFBh
eVNlbnNlMQwwCgYDVQQLDANBQ0ExDDAKBgNVBAMMA0FDQTEfMB0GCSqGSIb3DQEJ
ARYQYWNhQGRlaWMudWFiLmNhdDAeFw0xNTExMDIxMTU1MDJaFw0xNjExMDExMTU1
MDJaMIGAMQswCQYDVQQGEwJDVDESMBAGA1UECAwJQmFyY2Vsb25hMRMwEQYDVQQH
DApCZWxsYXRlcnJhMQwwCgYDVQQKDANVQUIxDTALBgNVBAsMBERFSUMxKzApBgNV
BAMMIm4xVDlIVWdBV1FRVHZDYWlneFFUWWE4QnR2YVQ2NVpLYzQwVjAQBgcqhkjO
PQIBBgUrgQQACgNCAARbSlyP1rJZ1HRW5JFSXMAow2zn9vHnSwTqlEGBHo6jHsRS
mkAhINTiQoTbNfTllM5vnNlj8RqbUf7stfxPpMNjMA0GCSqGSIb3DQEBCwUAA4IC
AQBciKfhIaVemEKBM96KZdxUye6x1cms/8Fr8f7AHVI0h3hAy2Dy9+OddPjImgec
AiJmjVpcWY+l99x+WiaI5eerYbF4mSwsTc0QlTIrfQIE6+ZRxyf9XKPv242KBxGi
jJWs3hFFoJY0GZjvrjOY74tdMQQitmQj2XB8W09k7OBh4LFWy7U6arCNgLhsyelp
E688Y5eMjirmyiIH+ECat6a9D5YK0gjshQFsAPpj15Klvn2KC3Eg3IOYrAsoEJ5D
Lb5/sjI4Dv0Vd2y+BCDN8yEkz9J7q6CQfLtevd5R+78C+GZw4Kzcvvw6OU7XMNhJ
ckzm9d1+BkqwX+6LoFWOdVbrbByVRfCyY1tPeuQgjgQrya15Eby4vhIs7xQYEyq1
0+H4BLiSTwZTL0fwwguopI070pxCpDUPvZNClRnx+IXjDurLPvJas0KUYAcx3FSC
PUiFgxs8EBPrN7u0CtGXk3nNrmwT3kfOzYtVh76gAyaZDgrvo0XnnCvRDOQVw8Wf
Cif+ra4Nj8oW/cQ9yTNYKA0dLD67erVqAdJS7txl+PYqn4XrRj0/2ZXrGoK4JtPP
gKYmvjC7KrC5UdhBEe072OABrDg5zLKFK4rNjlKBBpr84IiS+8cMsNAhpwcQnBBJ
8z4KkZ9+eatjus43jqffDIKB6Zdiv0KRbN1a204jFunG6w==
-----END CERTIFICATE-----
