Certificate:
    Data:
        Version: 1 (0x0)
        Serial Number: 0 (0x0)
    Signature Algorithm: sha256WithRSAEncryption
        Issuer: C=CT, ST=Barcelona, L=Bellaterra, O=PaySense, OU=ACA, CN=ACA/emailAddress=aca@deic.uab.cat
        Validity
            Not Before: Nov 18 14:37:58 2015 GMT
            Not After : Nov 17 14:37:58 2016 GMT
        Subject: C=CT, ST=Barcelona, L=Bellaterra, O=UAB, OU=DEIC, CN=mwd8R6dNMp9GdrmxNdrG1ZiBjyRi6KLSUo
        Subject Public Key Info:
            Public Key Algorithm: id-ecPublicKey
                Public-Key: (256 bit)
                pub: 
                    04:9d:a5:17:c9:76:0c:05:c7:af:7f:df:97:3d:22:
                    06:ad:d5:7c:ff:3f:bf:f0:34:88:11:5f:66:75:03:
                    fa:b3:6e:61:82:ff:c8:eb:3e:e6:93:88:5d:aa:ce:
                    36:82:80:4e:c9:47:6a:3f:69:10:97:63:12:68:e6:
                    db:cc:5b:58:77
                ASN1 OID: secp256k1
    Signature Algorithm: sha256WithRSAEncryption
         2e:70:32:b3:ee:80:72:dd:8c:e0:a8:d0:79:6e:44:f6:b5:cb:
         54:9b:f9:2f:0c:ff:12:7f:2e:23:e9:c1:c8:a4:dd:84:2b:d5:
         2a:b1:06:5d:f1:22:41:ff:3b:3a:2c:dd:cd:c4:f4:10:3a:8c:
         38:9f:40:37:ac:ca:db:29:42:95:bd:34:93:5b:cb:b4:d1:69:
         9f:b7:06:51:3c:a9:b4:55:b6:86:96:9d:57:8d:a7:0d:55:46:
         e7:a9:de:91:81:aa:bf:84:69:66:ed:54:30:84:76:c0:b9:d9:
         fa:17:08:8a:a2:80:e3:aa:1c:a2:42:26:59:21:3e:4d:a6:c0:
         71:6c:b0:cb:f0:48:a1:fa:39:28:11:9e:5f:4a:b1:d5:bd:cb:
         1a:14:bd:96:ce:fc:af:8e:ae:8c:2f:d4:ad:a8:d1:b0:d4:c0:
         9b:a6:7b:e8:e0:44:76:81:25:93:f6:40:1c:ef:61:46:38:97:
         5c:0a:ff:95:4c:cc:62:fb:46:4b:d8:57:f9:50:52:d1:5d:b5:
         4e:fb:d0:17:a1:61:15:f4:f6:59:f0:df:d4:e8:49:9b:f0:41:
         62:ee:21:06:35:a0:e6:74:1d:1e:ec:24:99:3b:59:95:c8:db:
         66:88:7a:69:f7:32:86:57:80:21:d9:c8:b1:90:37:89:6f:ae:
         6b:ee:3f:ac:b3:6c:d4:1e:1f:ab:c3:a3:d1:53:71:38:34:98:
         a2:04:34:4a:82:b6:d5:a9:38:e2:b5:08:72:b4:cc:b6:71:df:
         ed:2e:5c:9b:bf:7e:ea:70:3c:d3:cd:19:65:b9:40:fd:e1:12:
         a7:31:d1:df:a9:9d:2f:e6:9f:42:6f:93:64:1d:62:e1:84:db:
         aa:7e:a3:97:8b:14:5a:47:34:ae:7e:92:fb:0a:a0:f6:b0:1c:
         4a:aa:f8:a9:ae:69:58:8e:bc:e5:df:9f:2d:71:b0:66:ab:ce:
         8c:14:a2:b5:f6:cd:5e:58:5e:45:b7:fc:d1:9f:84:2e:2c:1f:
         41:a2:26:2f:74:73:9a:ae:df:99:b2:db:6c:68:84:d2:80:30:
         73:81:19:25:5b:b6:18:0f:37:5e:1d:6e:5b:89:90:95:c2:e3:
         b3:87:22:26:dd:0d:28:6b:f7:a3:a1:dc:01:cd:f2:42:68:5b:
         53:7c:11:b7:f8:52:25:53:50:54:ba:76:11:aa:f5:b8:27:86:
         50:f0:97:bd:f5:af:3f:8b:f0:a9:2b:88:7a:b3:25:ff:b8:4a:
         58:c5:03:78:7d:5e:ec:81:2b:4e:13:dd:84:5a:94:d2:c4:34:
         a4:11:63:01:be:1d:5c:b2:01:4b:6c:40:27:cf:42:53:02:3c:
         24:0a:65:05:a4:93:8e:57
-----BEGIN CERTIFICATE-----
MIIDrjCCAZYCAQAwDQYJKoZIhvcNAQELBQAwgYYxCzAJBgNVBAYTAkNUMRIwEAYD
VQQIDAlCYXJjZWxvbmExEzARBgNVBAcMCkJlbGxhdGVycmExETAPBgNVBAoMCFBh
eVNlbnNlMQwwCgYDVQQLDANBQ0ExDDAKBgNVBAMMA0FDQTEfMB0GCSqGSIb3DQEJ
ARYQYWNhQGRlaWMudWFiLmNhdDAeFw0xNTExMTgxNDM3NThaFw0xNjExMTcxNDM3
NThaMIGAMQswCQYDVQQGEwJDVDESMBAGA1UECAwJQmFyY2Vsb25hMRMwEQYDVQQH
DApCZWxsYXRlcnJhMQwwCgYDVQQKDANVQUIxDTALBgNVBAsMBERFSUMxKzApBgNV
BAMMIm13ZDhSNmROTXA5R2RybXhOZHJHMVppQmp5Umk2S0xTVW8wVjAQBgcqhkjO
PQIBBgUrgQQACgNCAASdpRfJdgwFx69/35c9Igat1Xz/P7/wNIgRX2Z1A/qzbmGC
/8jrPuaTiF2qzjaCgE7JR2o/aRCXYxJo5tvMW1h3MA0GCSqGSIb3DQEBCwUAA4IC
AQAucDKz7oBy3YzgqNB5bkT2tctUm/kvDP8Sfy4j6cHIpN2EK9UqsQZd8SJB/zs6
LN3NxPQQOow4n0A3rMrbKUKVvTSTW8u00WmftwZRPKm0VbaGlp1XjacNVUbnqd6R
gaq/hGlm7VQwhHbAudn6FwiKooDjqhyiQiZZIT5NpsBxbLDL8Eih+jkoEZ5fSrHV
vcsaFL2Wzvyvjq6ML9StqNGw1MCbpnvo4ER2gSWT9kAc72FGOJdcCv+VTMxi+0ZL
2Ff5UFLRXbVO+9AXoWEV9PZZ8N/U6Emb8EFi7iEGNaDmdB0e7CSZO1mVyNtmiHpp
9zKGV4Ah2cixkDeJb65r7j+ss2zUHh+rw6PRU3E4NJiiBDRKgrbVqTjitQhytMy2
cd/tLlybv37qcDzTzRlluUD94RKnMdHfqZ0v5p9Cb5NkHWLhhNuqfqOXixRaRzSu
fpL7CqD2sBxKqviprmlYjrzl358tcbBmq86MFKK19s1eWF5Ft/zRn4QuLB9BoiYv
dHOart+ZsttsaITSgDBzgRklW7YYDzdeHW5biZCVwuOzhyIm3Q0oa/ejodwBzfJC
aFtTfBG3+FIlU1BUunYRqvW4J4ZQ8Je99a8/i/CpK4h6syX/uEpYxQN4fV7sgStO
E92EWpTSxDSkEWMBvh1csgFLbEAnz0JTAjwkCmUFpJOOVw==
-----END CERTIFICATE-----
