Certificate:
    Data:
        Version: 1 (0x0)
        Serial Number: 0 (0x0)
    Signature Algorithm: sha256WithRSAEncryption
        Issuer: C=CT, ST=Barcelona, L=Bellaterra, O=PaySense, OU=ACA, CN=ACA/emailAddress=aca@deic.uab.cat
        Validity
            Not Before: Nov 13 15:34:28 2015 GMT
            Not After : Nov 12 15:34:28 2016 GMT
        Subject: C=CT, ST=Barcelona, L=Bellaterra, O=UAB, OU=DEIC, CN=mn2vRVWVDt1GkZWCN3oqPefAERFTTBNBmW
        Subject Public Key Info:
            Public Key Algorithm: id-ecPublicKey
                Public-Key: (256 bit)
                pub: 
                    04:ff:c4:ba:dc:9a:48:ba:ad:59:a6:c3:58:af:f1:
                    45:ea:e6:d5:5a:69:7e:95:48:8d:f1:08:26:af:8f:
                    c1:4c:2c:87:09:91:6e:ca:ef:2c:37:85:d0:57:3a:
                    ef:0e:fc:11:03:09:7c:65:a9:8b:1d:96:89:cc:2b:
                    eb:86:a3:82:2f
                ASN1 OID: secp256k1
    Signature Algorithm: sha256WithRSAEncryption
         70:8a:43:e4:e3:66:7e:b3:a4:2b:6b:a9:bc:31:d5:84:60:65:
         4d:dd:4a:91:37:f6:0a:05:12:70:c9:30:36:a6:2b:3e:d5:5d:
         59:d3:d7:76:27:18:ce:c6:cd:54:37:f0:de:09:d2:2c:e9:a7:
         4c:ad:bd:41:80:6f:4a:d1:18:e2:7d:01:a4:99:ed:8d:49:ca:
         96:ab:35:b5:f2:bb:db:da:dd:85:e6:a0:2d:e8:ad:8f:46:fb:
         c9:c7:97:a4:9b:da:9c:e0:88:92:29:17:85:af:81:b9:65:40:
         51:e7:d5:88:2c:aa:25:c8:91:74:72:65:81:d0:15:c4:5c:c0:
         ab:d6:ae:b9:b5:3d:f5:f0:27:a2:90:fd:66:15:fd:30:53:d9:
         5d:a7:dc:5b:51:9c:12:23:f1:f9:5f:81:be:f6:2f:82:fd:10:
         e1:3b:85:92:c9:5c:e9:43:c7:6b:95:30:87:94:8b:e7:26:3b:
         91:5d:26:9f:13:d3:44:af:70:9f:a1:c3:71:64:1b:cb:86:b7:
         21:2f:9b:c7:61:16:4c:bb:6a:6b:eb:f9:c2:f8:93:4a:26:24:
         3c:59:d1:43:84:a5:fd:06:d1:67:16:2c:91:b9:64:f9:6e:2f:
         df:0f:68:d5:6f:dc:37:11:93:b9:58:71:5b:d2:80:ae:0c:56:
         f1:4f:2c:4e:0f:f3:01:2c:9c:4b:00:1a:e1:fa:e5:6c:42:37:
         fe:cd:44:4e:88:13:15:e4:12:3b:51:63:1a:13:44:56:bd:23:
         fb:ac:0a:4b:e5:2a:d3:fe:a4:77:cf:3a:58:5d:12:fc:02:4b:
         36:1d:08:fc:b4:85:56:46:5d:51:6b:a7:2f:79:08:85:df:0f:
         89:01:09:54:98:ed:0d:03:f8:cb:56:fd:58:9a:76:66:3b:a7:
         16:8e:78:2f:ea:e5:0d:af:9b:32:0f:e7:16:80:fe:f0:84:20:
         6a:ed:c3:16:0b:00:d7:00:40:b5:39:dd:f6:f1:14:6a:43:b6:
         af:47:ac:5b:97:40:d7:9f:99:1c:ec:bd:3d:01:6b:32:af:c2:
         77:13:20:07:0d:15:dc:17:af:e4:5b:a7:b0:c9:9c:0c:bf:21:
         ff:5f:b0:e1:a4:b8:e9:a2:a9:6a:ee:f2:51:c6:22:11:39:07:
         38:ce:fd:44:36:23:86:aa:fb:c0:d5:e1:02:f8:2b:51:64:71:
         35:7b:39:ce:1e:d6:d5:45:d1:5a:0a:5d:91:f7:4e:d0:90:ea:
         7a:3a:17:63:b5:d6:a3:47:a9:1f:6d:47:50:b8:eb:36:f7:b6:
         bd:2e:22:84:4d:d7:27:66:a9:fe:7e:b8:d7:68:17:95:9b:42:
         d1:ea:6e:2e:66:f8:8a:a0
-----BEGIN CERTIFICATE-----
MIIDrjCCAZYCAQAwDQYJKoZIhvcNAQELBQAwgYYxCzAJBgNVBAYTAkNUMRIwEAYD
VQQIDAlCYXJjZWxvbmExEzARBgNVBAcMCkJlbGxhdGVycmExETAPBgNVBAoMCFBh
eVNlbnNlMQwwCgYDVQQLDANBQ0ExDDAKBgNVBAMMA0FDQTEfMB0GCSqGSIb3DQEJ
ARYQYWNhQGRlaWMudWFiLmNhdDAeFw0xNTExMTMxNTM0MjhaFw0xNjExMTIxNTM0
MjhaMIGAMQswCQYDVQQGEwJDVDESMBAGA1UECAwJQmFyY2Vsb25hMRMwEQYDVQQH
DApCZWxsYXRlcnJhMQwwCgYDVQQKDANVQUIxDTALBgNVBAsMBERFSUMxKzApBgNV
BAMMIm1uMnZSVldWRHQxR2taV0NOM29xUGVmQUVSRlRUQk5CbVcwVjAQBgcqhkjO
PQIBBgUrgQQACgNCAAT/xLrcmki6rVmmw1iv8UXq5tVaaX6VSI3xCCavj8FMLIcJ
kW7K7yw3hdBXOu8O/BEDCXxlqYsdlonMK+uGo4IvMA0GCSqGSIb3DQEBCwUAA4IC
AQBwikPk42Z+s6Qra6m8MdWEYGVN3UqRN/YKBRJwyTA2pis+1V1Z09d2JxjOxs1U
N/DeCdIs6adMrb1BgG9K0RjifQGkme2NScqWqzW18rvb2t2F5qAt6K2PRvvJx5ek
m9qc4IiSKReFr4G5ZUBR59WILKolyJF0cmWB0BXEXMCr1q65tT318CeikP1mFf0w
U9ldp9xbUZwSI/H5X4G+9i+C/RDhO4WSyVzpQ8drlTCHlIvnJjuRXSafE9NEr3Cf
ocNxZBvLhrchL5vHYRZMu2pr6/nC+JNKJiQ8WdFDhKX9BtFnFiyRuWT5bi/fD2jV
b9w3EZO5WHFb0oCuDFbxTyxOD/MBLJxLABrh+uVsQjf+zUROiBMV5BI7UWMaE0RW
vSP7rApL5SrT/qR3zzpYXRL8Aks2HQj8tIVWRl1Ra6cveQiF3w+JAQlUmO0NA/jL
Vv1YmnZmO6cWjngv6uUNr5syD+cWgP7whCBq7cMWCwDXAEC1Od328RRqQ7avR6xb
l0DXn5kc7L09AWsyr8J3EyAHDRXcF6/kW6ewyZwMvyH/X7DhpLjpoqlq7vJRxiIR
OQc4zv1ENiOGqvvA1eEC+CtRZHE1eznOHtbVRdFaCl2R907QkOp6OhdjtdajR6kf
bUdQuOs297a9LiKETdcnZqn+frjXaBeVm0LR6m4uZviKoA==
-----END CERTIFICATE-----
