Certificate:
    Data:
        Version: 1 (0x0)
        Serial Number: 0 (0x0)
    Signature Algorithm: sha256WithRSAEncryption
        Issuer: C=CT, ST=Barcelona, L=Bellaterra, O=PaySense, OU=ACA, CN=ACA/emailAddress=aca@deic.uab.cat
        Validity
            Not Before: May  6 10:58:59 2015 GMT
            Not After : May  5 10:58:59 2016 GMT
        Subject: C=CA, ST=Barcelona, L=Bellaterra, O=UAB, OU=DEIC, CN=mpFECAZYV4dXnK2waQC36AoZsAftv5RAkM
        Subject Public Key Info:
            Public Key Algorithm: id-ecPublicKey
                Public-Key: (256 bit)
                pub: 
                    04:33:4a:df:ad:67:53:55:94:00:3c:d8:51:06:2d:
                    e9:4a:90:f0:6f:07:82:b1:5f:a1:81:27:96:aa:ae:
                    1b:fd:cd:f0:08:20:b0:4e:59:55:a9:68:b0:ae:46:
                    44:5e:ff:8d:c1:a3:d1:e4:f8:64:fb:d3:bc:e0:0c:
                    31:58:0c:7c:85
                ASN1 OID: secp256k1
    Signature Algorithm: sha256WithRSAEncryption
         89:b5:6e:59:cd:74:ad:ee:e1:31:01:65:c1:36:1d:49:2a:c9:
         a3:39:de:cb:11:e9:54:e6:09:80:6e:50:14:9a:1b:e8:75:1f:
         bc:73:42:3e:5b:22:d6:83:97:b1:e3:79:b6:b9:32:97:fc:cd:
         73:d9:5d:fe:6c:67:a2:1c:12:78
-----BEGIN CERTIFICATE-----
MIIB7DCCAZYCAQAwDQYJKoZIhvcNAQELBQAwgYYxCzAJBgNVBAYTAkNUMRIwEAYD
VQQIEwlCYXJjZWxvbmExEzARBgNVBAcTCkJlbGxhdGVycmExETAPBgNVBAoTCFBh
eVNlbnNlMQwwCgYDVQQLEwNBQ0ExDDAKBgNVBAMTA0FDQTEfMB0GCSqGSIb3DQEJ
ARYQYWNhQGRlaWMudWFiLmNhdDAeFw0xNTA1MDYxMDU4NTlaFw0xNjA1MDUxMDU4
NTlaMIGAMQswCQYDVQQGEwJDQTESMBAGA1UECAwJQmFyY2Vsb25hMRMwEQYDVQQH
DApCZWxsYXRlcnJhMQwwCgYDVQQKDANVQUIxDTALBgNVBAsMBERFSUMxKzApBgNV
BAMMIm1wRkVDQVpZVjRkWG5LMndhUUMzNkFvWnNBZnR2NVJBa00wVjAQBgcqhkjO
PQIBBgUrgQQACgNCAAQzSt+tZ1NVlAA82FEGLelKkPBvB4KxX6GBJ5aqrhv9zfAI
ILBOWVWpaLCuRkRe/43Bo9Hk+GT707zgDDFYDHyFMA0GCSqGSIb3DQEBCwUAA0EA
ibVuWc10re7hMQFlwTYdSSrJozneyxHpVOYJgG5QFJob6HUfvHNCPlsi1oOXseN5
trkyl/zNc9ld/mxnohwSeA==
-----END CERTIFICATE-----