Certificate:
    Data:
        Version: 1 (0x0)
        Serial Number: 0 (0x0)
    Signature Algorithm: sha256WithRSAEncryption
        Issuer: C=CT, ST=Barcelona, L=Bellaterra, O=PaySense, OU=ACA, CN=ACA/emailAddress=aca@deic.uab.cat
        Validity
            Not Before: Apr 27 13:15:09 2015 GMT
            Not After : Apr 26 13:15:09 2016 GMT
        Subject: C=CA, ST=Barcelona, L=Bellaterra, O=UAB, OU=DEIC, CN=1Dn9CJJgt8fqzTdDiPvcRiA5cmnPNkx3Wx
        Subject Public Key Info:
            Public Key Algorithm: id-ecPublicKey
                Public-Key: (256 bit)
                pub: 
                    04:e1:5e:8e:a5:c6:09:39:e8:6b:43:65:46:9f:a6:
                    eb:58:3c:ec:86:92:04:a7:70:c5:52:41:8d:b0:57:
                    f2:6c:3e:5d:a3:28:49:3c:91:64:cb:30:e1:a0:81:
                    10:6d:1e:44:23:af:01:f6:95:9a:2b:18:ab:76:6d:
                    57:1a:b8:7a:a7
                ASN1 OID: secp256k1
    Signature Algorithm: sha256WithRSAEncryption
         2a:bb:6e:fb:b8:a0:5e:a4:ed:5b:0a:21:ad:68:8b:ee:2e:2d:
         27:96:af:30:aa:b4:9a:38:40:88:73:f8:90:8d:1a:f0:d9:52:
         4d:5e:8c:f1:01:41:b7:12:77:0e:7e:db:a1:0c:34:be:ef:21:
         ea:8c:f3:df:a4:ae:01:06:00:e0
-----BEGIN CERTIFICATE-----
MIIB7DCCAZYCAQAwDQYJKoZIhvcNAQELBQAwgYYxCzAJBgNVBAYTAkNUMRIwEAYD
VQQIEwlCYXJjZWxvbmExEzARBgNVBAcTCkJlbGxhdGVycmExETAPBgNVBAoTCFBh
eVNlbnNlMQwwCgYDVQQLEwNBQ0ExDDAKBgNVBAMTA0FDQTEfMB0GCSqGSIb3DQEJ
ARYQYWNhQGRlaWMudWFiLmNhdDAeFw0xNTA0MjcxMzE1MDlaFw0xNjA0MjYxMzE1
MDlaMIGAMQswCQYDVQQGEwJDQTESMBAGA1UECAwJQmFyY2Vsb25hMRMwEQYDVQQH
DApCZWxsYXRlcnJhMQwwCgYDVQQKDANVQUIxDTALBgNVBAsMBERFSUMxKzApBgNV
BAMMIjFEbjlDSkpndDhmcXpUZERpUHZjUmlBNWNtblBOa3gzV3gwVjAQBgcqhkjO
PQIBBgUrgQQACgNCAAThXo6lxgk56GtDZUafputYPOyGkgSncMVSQY2wV/JsPl2j
KEk8kWTLMOGggRBtHkQjrwH2lZorGKt2bVcauHqnMA0GCSqGSIb3DQEBCwUAA0EA
Krtu+7igXqTtWwohrWiL7i4tJ5avMKq0mjhAiHP4kI0a8NlSTV6M8QFBtxJ3Dn7b
oQw0vu8h6ozz36SuAQYA4A==
-----END CERTIFICATE-----
