Certificate:
    Data:
        Version: 3 (0x2)
        Serial Number: 8768 (0x2240)
    Signature Algorithm: sha256WithRSAEncryption
        Issuer: C=CT, ST=Barcelona, L=Bellaterra, O=PaySense, OU=ACA, CN=ACA/emailAddress=aca@deic.uab.cat
        Validity
            Not Before: Apr 21 12:17:38 2015 GMT
            Not After : Apr 20 12:17:38 2016 GMT
        Subject: C=CT, ST=Barcelona, O=UAB, OU=DEIC, CN=1Dn9CJJgt8fqzTdDiPvcRiA5cmnPNkx3Wx
        Subject Public Key Info:
            Public Key Algorithm: id-ecPublicKey
                Public-Key: (256 bit)
                pub: 
                    04:4b:20:e6:95:68:01:f3:68:e9:e1:38:74:f4:62:
                    2c:82:c0:81:a6:a3:f4:4a:1b:49:7d:90:fc:97:62:
                    f5:b0:95:ad:a1:ad:8e:86:0f:0d:4d:cc:b3:86:3f:
                    3e:e7:d9:bb:38:7e:f5:27:da:4c:9f:15:c1:76:fc:
                    23:df:f7:6e:8a
                ASN1 OID: secp256k1
        X509v3 extensions:
            X509v3 Basic Constraints: 
                CA:FALSE
            Netscape Cert Type: 
                SSL Client, S/MIME
            X509v3 Key Usage: 
                Digital Signature, Non Repudiation, Key Encipherment
            Netscape Comment: 
                PaySense OpenSSL Generated Certificate
            X509v3 Subject Key Identifier: 
                6E:F6:FA:45:08:66:F0:70:28:27:2B:6C:E6:3A:4A:18:31:6D:CE:CA
            X509v3 Authority Key Identifier: 
                keyid:E6:90:D5:97:58:DE:71:26:67:14:8C:32:04:4B:BA:33:A6:83:16:57
                DirName:/C=CT/ST=Barcelona/L=Bellaterra/O=PaySense/OU=ACA/CN=ACA/emailAddress=aca@deic.uab.cat
                serial:81:AE:75:0E:64:4F:66:C7

    Signature Algorithm: sha256WithRSAEncryption
         1e:b4:09:53:c9:40:8b:0d:6a:74:57:15:c5:0e:d4:e7:1e:a3:
         fb:24:bb:5c:57:f4:c5:f3:82:3b:c3:46:71:ea:f9:14:86:9a:
         ab:4e:7f:49:a2:5e:cb:84:31:41:4e:5a:70:c6:cd:27:49:22:
         6c:0d:c7:51:3a:1c:09:60:b3:22
-----BEGIN CERTIFICATE-----
MIIDIzCCAs2gAwIBAgICIkAwDQYJKoZIhvcNAQELBQAwgYYxCzAJBgNVBAYTAkNU
MRIwEAYDVQQIEwlCYXJjZWxvbmExEzARBgNVBAcTCkJlbGxhdGVycmExETAPBgNV
BAoTCFBheVNlbnNlMQwwCgYDVQQLEwNBQ0ExDDAKBgNVBAMTA0FDQTEfMB0GCSqG
SIb3DQEJARYQYWNhQGRlaWMudWFiLmNhdDAeFw0xNTA0MjExMjE3MzhaFw0xNjA0
MjAxMjE3MzhaMGsxCzAJBgNVBAYTAkNUMRIwEAYDVQQIEwlCYXJjZWxvbmExDDAK
BgNVBAoTA1VBQjENMAsGA1UECxMEREVJQzErMCkGA1UEAxMiMURuOUNKSmd0OGZx
elRkRGlQdmNSaUE1Y21uUE5reDNXeDBWMBAGByqGSM49AgEGBSuBBAAKA0IABEsg
5pVoAfNo6eE4dPRiLILAgaaj9EobSX2Q/Jdi9bCVraGtjoYPDU3Ms4Y/PufZuzh+
9SfaTJ8VwXb8I9/3boqjggFDMIIBPzAJBgNVHRMEAjAAMBEGCWCGSAGG+EIBAQQE
AwIFoDALBgNVHQ8EBAMCBeAwNQYJYIZIAYb4QgENBCgWJlBheVNlbnNlIE9wZW5T
U0wgR2VuZXJhdGVkIENlcnRpZmljYXRlMB0GA1UdDgQWBBRu9vpFCGbwcCgnK2zm
OkoYMW3OyjCBuwYDVR0jBIGzMIGwgBTmkNWXWN5xJmcUjDIES7ozpoMWV6GBjKSB
iTCBhjELMAkGA1UEBhMCQ1QxEjAQBgNVBAgTCUJhcmNlbG9uYTETMBEGA1UEBxMK
QmVsbGF0ZXJyYTERMA8GA1UEChMIUGF5U2Vuc2UxDDAKBgNVBAsTA0FDQTEMMAoG
A1UEAxMDQUNBMR8wHQYJKoZIhvcNAQkBFhBhY2FAZGVpYy51YWIuY2F0ggkAga51
DmRPZscwDQYJKoZIhvcNAQELBQADQQAetAlTyUCLDWp0VxXFDtTnHqP7JLtcV/TF
84I7w0Zx6vkUhpqrTn9Jol7LhDFBTlpwxs0nSSJsDcdROhwJYLMi
-----END CERTIFICATE-----
