Certificate:
    Data:
        Version: 1 (0x0)
        Serial Number: 0 (0x0)
    Signature Algorithm: sha256WithRSAEncryption
        Issuer: C=CT, ST=Barcelona, L=Bellaterra, O=PaySense, OU=ACA, CN=ACA/emailAddress=aca@deic.uab.cat
        Validity
            Not Before: Apr 28 08:35:13 2015 GMT
            Not After : Apr 27 08:35:13 2016 GMT
        Subject: C=CA, ST=Barcelona, L=Bellaterra, O=UAB, OU=DEIC, CN=1Dn9CJJgt8fqzTdDiPvcRiA5cmnPNkx3Wx
        Subject Public Key Info:
            Public Key Algorithm: id-ecPublicKey
                Public-Key: (256 bit)
                pub: 
                    04:8a:58:4c:c3:aa:f6:26:70:dd:38:7a:cc:06:7d:
                    71:cf:6f:86:a5:83:8e:d6:31:9e:1a:f0:04:b4:b9:
                    1d:62:10:9a:75:2e:0d:6f:4c:98:2e:03:e7:ef:33:
                    7e:26:1c:e1:69:9d:92:fb:b6:db:22:76:b3:00:59:
                    3c:4d:de:08:86
                ASN1 OID: secp256k1
    Signature Algorithm: sha256WithRSAEncryption
         5e:2c:e3:07:f2:5d:7e:1a:0b:d5:aa:c3:04:56:40:bf:06:ea:
         7a:d1:ca:73:e5:7b:d4:51:88:df:ea:7d:0f:3a:a5:e9:67:74:
         3a:c3:27:70:88:a9:e1:68:97:9b:9a:bc:a6:44:f2:99:4d:e6:
         aa:70:1d:49:e1:b7:11:d7:8b:21
-----BEGIN CERTIFICATE-----
MIIB7DCCAZYCAQAwDQYJKoZIhvcNAQELBQAwgYYxCzAJBgNVBAYTAkNUMRIwEAYD
VQQIEwlCYXJjZWxvbmExEzARBgNVBAcTCkJlbGxhdGVycmExETAPBgNVBAoTCFBh
eVNlbnNlMQwwCgYDVQQLEwNBQ0ExDDAKBgNVBAMTA0FDQTEfMB0GCSqGSIb3DQEJ
ARYQYWNhQGRlaWMudWFiLmNhdDAeFw0xNTA0MjgwODM1MTNaFw0xNjA0MjcwODM1
MTNaMIGAMQswCQYDVQQGEwJDQTESMBAGA1UECAwJQmFyY2Vsb25hMRMwEQYDVQQH
DApCZWxsYXRlcnJhMQwwCgYDVQQKDANVQUIxDTALBgNVBAsMBERFSUMxKzApBgNV
BAMMIjFEbjlDSkpndDhmcXpUZERpUHZjUmlBNWNtblBOa3gzV3gwVjAQBgcqhkjO
PQIBBgUrgQQACgNCAASKWEzDqvYmcN04eswGfXHPb4alg47WMZ4a8AS0uR1iEJp1
Lg1vTJguA+fvM34mHOFpnZL7ttsidrMAWTxN3giGMA0GCSqGSIb3DQEBCwUAA0EA
XizjB/JdfhoL1arDBFZAvwbqetHKc+V71FGI3+p9Dzql6Wd0OsMncIip4WiXm5q8
pkTymU3mqnAdSeG3EdeLIQ==
-----END CERTIFICATE-----
