Certificate:
    Data:
        Version: 1 (0x0)
        Serial Number: 0 (0x0)
    Signature Algorithm: sha256WithRSAEncryption
        Issuer: C=CT, ST=Barcelona, L=Bellaterra, O=PaySense, OU=ACA, CN=ACA/emailAddress=aca@deic.uab.cat
        Validity
            Not Before: Nov 23 09:45:57 2015 GMT
            Not After : Nov 22 09:45:57 2016 GMT
        Subject: C=CT, ST=Barcelona, L=Bellaterra, O=UAB, OU=DEIC, CN=mkMayymgf24fGMtaky8ermdCrmhd1gzjrf
        Subject Public Key Info:
            Public Key Algorithm: id-ecPublicKey
                Public-Key: (256 bit)
                pub: 
                    04:c0:f2:a1:fc:f5:c9:b9:c0:b1:66:02:02:a9:4b:
                    75:ea:e5:98:b6:69:d5:1c:74:e1:99:11:a8:59:c0:
                    cf:4b:d6:a9:c7:10:46:a8:f4:50:24:1a:2b:bb:f2:
                    16:ea:a2:33:10:0f:70:a2:7d:2e:d8:59:62:4b:50:
                    87:d6:72:b3:bc
                ASN1 OID: secp256k1
    Signature Algorithm: sha256WithRSAEncryption
         50:dc:5a:74:49:10:e3:2d:52:08:f2:ab:c4:53:d3:51:be:ce:
         97:33:6f:2b:f6:7f:6f:14:ba:d0:58:5b:b7:22:6e:a5:8a:7b:
         d1:06:de:c5:19:15:6f:16:90:90:58:0c:37:26:74:81:a1:e2:
         3a:60:2e:07:96:43:c1:98:c2:7f:c0:9f:0b:9b:c5:ec:96:62:
         86:ec:1d:5b:58:50:a3:18:13:30:3f:68:a2:33:50:cb:ee:a7:
         32:51:2b:9e:41:99:f1:17:eb:2b:9d:f3:c9:a4:c2:66:21:52:
         35:9a:a8:ac:60:35:e0:9e:2e:49:cd:9e:d0:1b:1f:81:8d:a8:
         ab:24:3a:84:9b:ae:da:87:ec:f7:c1:7d:8d:81:ae:b6:78:ad:
         d9:92:81:83:b6:ec:a6:0a:b3:ef:1a:91:31:ef:8a:40:7a:4f:
         f3:ec:6b:ab:2c:1e:5a:86:68:46:c8:36:7d:33:d9:0d:58:d0:
         d1:59:c2:64:86:ee:41:b4:6b:29:1f:35:bb:5e:1d:03:7d:d2:
         79:59:09:89:fc:bf:de:b6:3a:3d:77:24:f7:1c:d1:c1:67:98:
         c4:34:6d:d0:dc:ad:1a:04:a1:75:b7:92:74:02:47:50:46:8c:
         7b:20:1a:82:3a:52:c4:de:0a:69:a7:8c:fd:fa:91:b0:be:8b:
         31:cb:cc:1a:90:56:17:63:39:78:e1:9b:f4:9f:1e:e5:ab:d2:
         06:a6:69:91:b3:43:0e:40:4c:f4:9f:7b:18:32:91:e0:22:10:
         96:81:48:bd:05:90:b9:8e:2c:5a:78:63:ba:30:04:e9:53:b0:
         b7:07:95:07:b3:21:07:7c:d5:d3:90:11:fe:3a:14:ad:ae:74:
         60:91:13:2c:de:e8:66:1c:28:41:4f:14:23:71:0f:9c:0a:79:
         38:a3:2f:e6:94:ef:82:3e:a3:80:39:23:b9:c8:8e:ce:54:16:
         39:84:c6:2c:cc:a5:a1:b6:fb:8a:84:84:b5:88:b4:bb:e8:86:
         c6:0d:3c:53:b2:7c:7b:cf:ae:03:82:15:27:d5:25:d4:b1:47:
         92:eb:c0:19:a3:e9:5b:46:31:ae:b0:eb:c8:f5:5f:1b:c5:a6:
         c8:c4:54:74:f3:fe:0c:8e:f3:61:18:62:3b:9b:5b:c9:1a:8a:
         f2:79:f6:5e:58:4c:9a:04:a8:64:0c:f5:e7:28:94:f2:5c:93:
         13:fe:7a:07:95:4a:da:f0:3d:77:ab:55:82:a7:54:7a:42:46:
         8f:fe:19:8c:df:e8:4e:76:62:90:3f:ed:3e:40:22:00:fe:3a:
         b0:a0:7e:ce:d8:c1:28:5f:c4:64:a4:03:45:8b:53:8f:7f:29:
         6f:c9:0e:1a:ab:5d:82:53
-----BEGIN CERTIFICATE-----
MIIDrjCCAZYCAQAwDQYJKoZIhvcNAQELBQAwgYYxCzAJBgNVBAYTAkNUMRIwEAYD
VQQIDAlCYXJjZWxvbmExEzARBgNVBAcMCkJlbGxhdGVycmExETAPBgNVBAoMCFBh
eVNlbnNlMQwwCgYDVQQLDANBQ0ExDDAKBgNVBAMMA0FDQTEfMB0GCSqGSIb3DQEJ
ARYQYWNhQGRlaWMudWFiLmNhdDAeFw0xNTExMjMwOTQ1NTdaFw0xNjExMjIwOTQ1
NTdaMIGAMQswCQYDVQQGEwJDVDESMBAGA1UECAwJQmFyY2Vsb25hMRMwEQYDVQQH
DApCZWxsYXRlcnJhMQwwCgYDVQQKDANVQUIxDTALBgNVBAsMBERFSUMxKzApBgNV
BAMMIm1rTWF5eW1nZjI0ZkdNdGFreThlcm1kQ3JtaGQxZ3pqcmYwVjAQBgcqhkjO
PQIBBgUrgQQACgNCAATA8qH89cm5wLFmAgKpS3Xq5Zi2adUcdOGZEahZwM9L1qnH
EEao9FAkGiu78hbqojMQD3CifS7YWWJLUIfWcrO8MA0GCSqGSIb3DQEBCwUAA4IC
AQBQ3Fp0SRDjLVII8qvEU9NRvs6XM28r9n9vFLrQWFu3Im6linvRBt7FGRVvFpCQ
WAw3JnSBoeI6YC4HlkPBmMJ/wJ8Lm8XslmKG7B1bWFCjGBMwP2iiM1DL7qcyUSue
QZnxF+srnfPJpMJmIVI1mqisYDXgni5JzZ7QGx+BjairJDqEm67ah+z3wX2Nga62
eK3ZkoGDtuymCrPvGpEx74pAek/z7GurLB5ahmhGyDZ9M9kNWNDRWcJkhu5BtGsp
HzW7Xh0DfdJ5WQmJ/L/etjo9dyT3HNHBZ5jENG3Q3K0aBKF1t5J0AkdQRox7IBqC
OlLE3gppp4z9+pGwvosxy8wakFYXYzl44Zv0nx7lq9IGpmmRs0MOQEz0n3sYMpHg
IhCWgUi9BZC5jixaeGO6MATpU7C3B5UHsyEHfNXTkBH+OhStrnRgkRMs3uhmHChB
TxQjcQ+cCnk4oy/mlO+CPqOAOSO5yI7OVBY5hMYszKWhtvuKhIS1iLS76IbGDTxT
snx7z64DghUn1SXUsUeS68AZo+lbRjGusOvI9V8bxabIxFR08/4MjvNhGGI7m1vJ
GoryefZeWEyaBKhkDPXnKJTyXJMT/noHlUra8D13q1WCp1R6QkaP/hmM3+hOdmKQ
P+0+QCIA/jqwoH7O2MEoX8RkpANFi1OPfylvyQ4aq12CUw==
-----END CERTIFICATE-----
